
NTI_OS_AVR_TEST.elf:     file format elf32-avr

Sections:
Idx Name          Size      VMA       LMA       File off  Algn
  0 .text         000023b4  00000000  00000000  00000094  2**1
                  CONTENTS, ALLOC, LOAD, READONLY, CODE
  1 .data         00000002  00800060  000023b4  00002448  2**0
                  CONTENTS, ALLOC, LOAD, DATA
  2 .bss          00000038  00800062  00800062  0000244a  2**0
                  ALLOC
  3 .stab         000022c8  00000000  00000000  0000244c  2**2
                  CONTENTS, READONLY, DEBUGGING
  4 .stabstr      0000186c  00000000  00000000  00004714  2**0
                  CONTENTS, READONLY, DEBUGGING

Disassembly of section .text:

00000000 <__vectors>:
       0:	0c 94 2a 00 	jmp	0x54	; 0x54 <__ctors_end>
       4:	0c 94 8a 0a 	jmp	0x1514	; 0x1514 <__vector_1>
       8:	0c 94 b7 0a 	jmp	0x156e	; 0x156e <__vector_2>
       c:	0c 94 e4 0a 	jmp	0x15c8	; 0x15c8 <__vector_3>
      10:	0c 94 47 00 	jmp	0x8e	; 0x8e <__bad_interrupt>
      14:	0c 94 47 00 	jmp	0x8e	; 0x8e <__bad_interrupt>
      18:	0c 94 47 00 	jmp	0x8e	; 0x8e <__bad_interrupt>
      1c:	0c 94 47 00 	jmp	0x8e	; 0x8e <__bad_interrupt>
      20:	0c 94 47 00 	jmp	0x8e	; 0x8e <__bad_interrupt>
      24:	0c 94 47 00 	jmp	0x8e	; 0x8e <__bad_interrupt>
      28:	0c 94 00 10 	jmp	0x2000	; 0x2000 <__vector_10>
      2c:	0c 94 10 10 	jmp	0x2020	; 0x2020 <__vector_11>
      30:	0c 94 47 00 	jmp	0x8e	; 0x8e <__bad_interrupt>
      34:	0c 94 47 00 	jmp	0x8e	; 0x8e <__bad_interrupt>
      38:	0c 94 47 00 	jmp	0x8e	; 0x8e <__bad_interrupt>
      3c:	0c 94 47 00 	jmp	0x8e	; 0x8e <__bad_interrupt>
      40:	0c 94 47 00 	jmp	0x8e	; 0x8e <__bad_interrupt>
      44:	0c 94 47 00 	jmp	0x8e	; 0x8e <__bad_interrupt>
      48:	0c 94 47 00 	jmp	0x8e	; 0x8e <__bad_interrupt>
      4c:	0c 94 47 00 	jmp	0x8e	; 0x8e <__bad_interrupt>
      50:	0c 94 47 00 	jmp	0x8e	; 0x8e <__bad_interrupt>

00000054 <__ctors_end>:
      54:	11 24       	eor	r1, r1
      56:	1f be       	out	0x3f, r1	; 63
      58:	cf e5       	ldi	r28, 0x5F	; 95
      5a:	d8 e0       	ldi	r29, 0x08	; 8
      5c:	de bf       	out	0x3e, r29	; 62
      5e:	cd bf       	out	0x3d, r28	; 61

00000060 <__do_copy_data>:
      60:	10 e0       	ldi	r17, 0x00	; 0
      62:	a0 e6       	ldi	r26, 0x60	; 96
      64:	b0 e0       	ldi	r27, 0x00	; 0
      66:	e4 eb       	ldi	r30, 0xB4	; 180
      68:	f3 e2       	ldi	r31, 0x23	; 35
      6a:	02 c0       	rjmp	.+4      	; 0x70 <.do_copy_data_start>

0000006c <.do_copy_data_loop>:
      6c:	05 90       	lpm	r0, Z+
      6e:	0d 92       	st	X+, r0

00000070 <.do_copy_data_start>:
      70:	a2 36       	cpi	r26, 0x62	; 98
      72:	b1 07       	cpc	r27, r17
      74:	d9 f7       	brne	.-10     	; 0x6c <.do_copy_data_loop>

00000076 <__do_clear_bss>:
      76:	10 e0       	ldi	r17, 0x00	; 0
      78:	a2 e6       	ldi	r26, 0x62	; 98
      7a:	b0 e0       	ldi	r27, 0x00	; 0
      7c:	01 c0       	rjmp	.+2      	; 0x80 <.do_clear_bss_start>

0000007e <.do_clear_bss_loop>:
      7e:	1d 92       	st	X+, r1

00000080 <.do_clear_bss_start>:
      80:	aa 39       	cpi	r26, 0x9A	; 154
      82:	b1 07       	cpc	r27, r17
      84:	e1 f7       	brne	.-8      	; 0x7e <.do_clear_bss_loop>
      86:	0e 94 e9 10 	call	0x21d2	; 0x21d2 <main>
      8a:	0c 94 d8 11 	jmp	0x23b0	; 0x23b0 <_exit>

0000008e <__bad_interrupt>:
      8e:	0c 94 00 00 	jmp	0	; 0x0 <__vectors>

00000092 <DIO_voidSetPinDirection>:
#include "../inc/DIO_config.h"
#include "../inc/DIO_interface.h"
#include "../inc/DIO_private.h"

void DIO_voidSetPinDirection(PORT_t Copy_PortId,PIN_t Copy_PinId,DIRECTION_t Copy_Direction)
{
      92:	df 93       	push	r29
      94:	cf 93       	push	r28
      96:	cd b7       	in	r28, 0x3d	; 61
      98:	de b7       	in	r29, 0x3e	; 62
      9a:	2d 97       	sbiw	r28, 0x0d	; 13
      9c:	0f b6       	in	r0, 0x3f	; 63
      9e:	f8 94       	cli
      a0:	de bf       	out	0x3e, r29	; 62
      a2:	0f be       	out	0x3f, r0	; 63
      a4:	cd bf       	out	0x3d, r28	; 61
      a6:	89 83       	std	Y+1, r24	; 0x01
      a8:	6a 83       	std	Y+2, r22	; 0x02
      aa:	4b 83       	std	Y+3, r20	; 0x03
	switch(Copy_PortId)
      ac:	89 81       	ldd	r24, Y+1	; 0x01
      ae:	28 2f       	mov	r18, r24
      b0:	30 e0       	ldi	r19, 0x00	; 0
      b2:	3d 87       	std	Y+13, r19	; 0x0d
      b4:	2c 87       	std	Y+12, r18	; 0x0c
      b6:	8c 85       	ldd	r24, Y+12	; 0x0c
      b8:	9d 85       	ldd	r25, Y+13	; 0x0d
      ba:	81 30       	cpi	r24, 0x01	; 1
      bc:	91 05       	cpc	r25, r1
      be:	09 f4       	brne	.+2      	; 0xc2 <DIO_voidSetPinDirection+0x30>
      c0:	b8 c0       	rjmp	.+368    	; 0x232 <DIO_voidSetPinDirection+0x1a0>
      c2:	2c 85       	ldd	r18, Y+12	; 0x0c
      c4:	3d 85       	ldd	r19, Y+13	; 0x0d
      c6:	22 30       	cpi	r18, 0x02	; 2
      c8:	31 05       	cpc	r19, r1
      ca:	2c f4       	brge	.+10     	; 0xd6 <DIO_voidSetPinDirection+0x44>
      cc:	8c 85       	ldd	r24, Y+12	; 0x0c
      ce:	9d 85       	ldd	r25, Y+13	; 0x0d
      d0:	00 97       	sbiw	r24, 0x00	; 0
      d2:	71 f0       	breq	.+28     	; 0xf0 <DIO_voidSetPinDirection+0x5e>
      d4:	90 c2       	rjmp	.+1312   	; 0x5f6 <DIO_voidSetPinDirection+0x564>
      d6:	2c 85       	ldd	r18, Y+12	; 0x0c
      d8:	3d 85       	ldd	r19, Y+13	; 0x0d
      da:	22 30       	cpi	r18, 0x02	; 2
      dc:	31 05       	cpc	r19, r1
      de:	09 f4       	brne	.+2      	; 0xe2 <DIO_voidSetPinDirection+0x50>
      e0:	49 c1       	rjmp	.+658    	; 0x374 <DIO_voidSetPinDirection+0x2e2>
      e2:	8c 85       	ldd	r24, Y+12	; 0x0c
      e4:	9d 85       	ldd	r25, Y+13	; 0x0d
      e6:	83 30       	cpi	r24, 0x03	; 3
      e8:	91 05       	cpc	r25, r1
      ea:	09 f4       	brne	.+2      	; 0xee <DIO_voidSetPinDirection+0x5c>
      ec:	e4 c1       	rjmp	.+968    	; 0x4b6 <DIO_voidSetPinDirection+0x424>
      ee:	83 c2       	rjmp	.+1286   	; 0x5f6 <DIO_voidSetPinDirection+0x564>
	{
		case PORT_A:
			switch(Copy_PinId)
      f0:	8a 81       	ldd	r24, Y+2	; 0x02
      f2:	28 2f       	mov	r18, r24
      f4:	30 e0       	ldi	r19, 0x00	; 0
      f6:	3b 87       	std	Y+11, r19	; 0x0b
      f8:	2a 87       	std	Y+10, r18	; 0x0a
      fa:	8a 85       	ldd	r24, Y+10	; 0x0a
      fc:	9b 85       	ldd	r25, Y+11	; 0x0b
      fe:	83 30       	cpi	r24, 0x03	; 3
     100:	91 05       	cpc	r25, r1
     102:	09 f4       	brne	.+2      	; 0x106 <DIO_voidSetPinDirection+0x74>
     104:	51 c0       	rjmp	.+162    	; 0x1a8 <DIO_voidSetPinDirection+0x116>
     106:	2a 85       	ldd	r18, Y+10	; 0x0a
     108:	3b 85       	ldd	r19, Y+11	; 0x0b
     10a:	24 30       	cpi	r18, 0x04	; 4
     10c:	31 05       	cpc	r19, r1
     10e:	7c f4       	brge	.+30     	; 0x12e <DIO_voidSetPinDirection+0x9c>
     110:	8a 85       	ldd	r24, Y+10	; 0x0a
     112:	9b 85       	ldd	r25, Y+11	; 0x0b
     114:	81 30       	cpi	r24, 0x01	; 1
     116:	91 05       	cpc	r25, r1
     118:	71 f1       	breq	.+92     	; 0x176 <DIO_voidSetPinDirection+0xe4>
     11a:	2a 85       	ldd	r18, Y+10	; 0x0a
     11c:	3b 85       	ldd	r19, Y+11	; 0x0b
     11e:	22 30       	cpi	r18, 0x02	; 2
     120:	31 05       	cpc	r19, r1
     122:	ac f5       	brge	.+106    	; 0x18e <DIO_voidSetPinDirection+0xfc>
     124:	8a 85       	ldd	r24, Y+10	; 0x0a
     126:	9b 85       	ldd	r25, Y+11	; 0x0b
     128:	00 97       	sbiw	r24, 0x00	; 0
     12a:	d1 f0       	breq	.+52     	; 0x160 <DIO_voidSetPinDirection+0xce>
     12c:	64 c2       	rjmp	.+1224   	; 0x5f6 <DIO_voidSetPinDirection+0x564>
     12e:	2a 85       	ldd	r18, Y+10	; 0x0a
     130:	3b 85       	ldd	r19, Y+11	; 0x0b
     132:	25 30       	cpi	r18, 0x05	; 5
     134:	31 05       	cpc	r19, r1
     136:	09 f4       	brne	.+2      	; 0x13a <DIO_voidSetPinDirection+0xa8>
     138:	52 c0       	rjmp	.+164    	; 0x1de <DIO_voidSetPinDirection+0x14c>
     13a:	8a 85       	ldd	r24, Y+10	; 0x0a
     13c:	9b 85       	ldd	r25, Y+11	; 0x0b
     13e:	85 30       	cpi	r24, 0x05	; 5
     140:	91 05       	cpc	r25, r1
     142:	0c f4       	brge	.+2      	; 0x146 <DIO_voidSetPinDirection+0xb4>
     144:	3f c0       	rjmp	.+126    	; 0x1c4 <DIO_voidSetPinDirection+0x132>
     146:	2a 85       	ldd	r18, Y+10	; 0x0a
     148:	3b 85       	ldd	r19, Y+11	; 0x0b
     14a:	26 30       	cpi	r18, 0x06	; 6
     14c:	31 05       	cpc	r19, r1
     14e:	09 f4       	brne	.+2      	; 0x152 <DIO_voidSetPinDirection+0xc0>
     150:	54 c0       	rjmp	.+168    	; 0x1fa <DIO_voidSetPinDirection+0x168>
     152:	8a 85       	ldd	r24, Y+10	; 0x0a
     154:	9b 85       	ldd	r25, Y+11	; 0x0b
     156:	87 30       	cpi	r24, 0x07	; 7
     158:	91 05       	cpc	r25, r1
     15a:	09 f4       	brne	.+2      	; 0x15e <DIO_voidSetPinDirection+0xcc>
     15c:	5d c0       	rjmp	.+186    	; 0x218 <DIO_voidSetPinDirection+0x186>
     15e:	4b c2       	rjmp	.+1174   	; 0x5f6 <DIO_voidSetPinDirection+0x564>
			{
				case PIN_0 :
						DIO->DDRA.Bit.B0 = Copy_Direction;
     160:	e0 e3       	ldi	r30, 0x30	; 48
     162:	f0 e0       	ldi	r31, 0x00	; 0
     164:	8b 81       	ldd	r24, Y+3	; 0x03
     166:	81 70       	andi	r24, 0x01	; 1
     168:	98 2f       	mov	r25, r24
     16a:	91 70       	andi	r25, 0x01	; 1
     16c:	82 85       	ldd	r24, Z+10	; 0x0a
     16e:	8e 7f       	andi	r24, 0xFE	; 254
     170:	89 2b       	or	r24, r25
     172:	82 87       	std	Z+10, r24	; 0x0a
     174:	40 c2       	rjmp	.+1152   	; 0x5f6 <DIO_voidSetPinDirection+0x564>
						break;
				case PIN_1 :
						DIO->DDRA.Bit.B1 = Copy_Direction;
     176:	e0 e3       	ldi	r30, 0x30	; 48
     178:	f0 e0       	ldi	r31, 0x00	; 0
     17a:	8b 81       	ldd	r24, Y+3	; 0x03
     17c:	81 70       	andi	r24, 0x01	; 1
     17e:	81 70       	andi	r24, 0x01	; 1
     180:	98 2f       	mov	r25, r24
     182:	99 0f       	add	r25, r25
     184:	82 85       	ldd	r24, Z+10	; 0x0a
     186:	8d 7f       	andi	r24, 0xFD	; 253
     188:	89 2b       	or	r24, r25
     18a:	82 87       	std	Z+10, r24	; 0x0a
     18c:	34 c2       	rjmp	.+1128   	; 0x5f6 <DIO_voidSetPinDirection+0x564>
						break;
				case PIN_2 :
						DIO->DDRA.Bit.B2 = Copy_Direction;
     18e:	e0 e3       	ldi	r30, 0x30	; 48
     190:	f0 e0       	ldi	r31, 0x00	; 0
     192:	8b 81       	ldd	r24, Y+3	; 0x03
     194:	81 70       	andi	r24, 0x01	; 1
     196:	81 70       	andi	r24, 0x01	; 1
     198:	98 2f       	mov	r25, r24
     19a:	99 0f       	add	r25, r25
     19c:	99 0f       	add	r25, r25
     19e:	82 85       	ldd	r24, Z+10	; 0x0a
     1a0:	8b 7f       	andi	r24, 0xFB	; 251
     1a2:	89 2b       	or	r24, r25
     1a4:	82 87       	std	Z+10, r24	; 0x0a
     1a6:	27 c2       	rjmp	.+1102   	; 0x5f6 <DIO_voidSetPinDirection+0x564>
						break;
				case PIN_3 :
						DIO->DDRA.Bit.B3 = Copy_Direction;
     1a8:	e0 e3       	ldi	r30, 0x30	; 48
     1aa:	f0 e0       	ldi	r31, 0x00	; 0
     1ac:	8b 81       	ldd	r24, Y+3	; 0x03
     1ae:	81 70       	andi	r24, 0x01	; 1
     1b0:	81 70       	andi	r24, 0x01	; 1
     1b2:	98 2f       	mov	r25, r24
     1b4:	99 0f       	add	r25, r25
     1b6:	99 0f       	add	r25, r25
     1b8:	99 0f       	add	r25, r25
     1ba:	82 85       	ldd	r24, Z+10	; 0x0a
     1bc:	87 7f       	andi	r24, 0xF7	; 247
     1be:	89 2b       	or	r24, r25
     1c0:	82 87       	std	Z+10, r24	; 0x0a
     1c2:	19 c2       	rjmp	.+1074   	; 0x5f6 <DIO_voidSetPinDirection+0x564>
						break;
				case PIN_4 :
						DIO->DDRA.Bit.B4 = Copy_Direction;
     1c4:	e0 e3       	ldi	r30, 0x30	; 48
     1c6:	f0 e0       	ldi	r31, 0x00	; 0
     1c8:	8b 81       	ldd	r24, Y+3	; 0x03
     1ca:	81 70       	andi	r24, 0x01	; 1
     1cc:	81 70       	andi	r24, 0x01	; 1
     1ce:	98 2f       	mov	r25, r24
     1d0:	92 95       	swap	r25
     1d2:	90 7f       	andi	r25, 0xF0	; 240
     1d4:	82 85       	ldd	r24, Z+10	; 0x0a
     1d6:	8f 7e       	andi	r24, 0xEF	; 239
     1d8:	89 2b       	or	r24, r25
     1da:	82 87       	std	Z+10, r24	; 0x0a
     1dc:	0c c2       	rjmp	.+1048   	; 0x5f6 <DIO_voidSetPinDirection+0x564>
						break;
				case PIN_5 :
						DIO->DDRA.Bit.B5 = Copy_Direction;
     1de:	e0 e3       	ldi	r30, 0x30	; 48
     1e0:	f0 e0       	ldi	r31, 0x00	; 0
     1e2:	8b 81       	ldd	r24, Y+3	; 0x03
     1e4:	81 70       	andi	r24, 0x01	; 1
     1e6:	81 70       	andi	r24, 0x01	; 1
     1e8:	98 2f       	mov	r25, r24
     1ea:	92 95       	swap	r25
     1ec:	99 0f       	add	r25, r25
     1ee:	90 7e       	andi	r25, 0xE0	; 224
     1f0:	82 85       	ldd	r24, Z+10	; 0x0a
     1f2:	8f 7d       	andi	r24, 0xDF	; 223
     1f4:	89 2b       	or	r24, r25
     1f6:	82 87       	std	Z+10, r24	; 0x0a
     1f8:	fe c1       	rjmp	.+1020   	; 0x5f6 <DIO_voidSetPinDirection+0x564>
						break;
				case PIN_6 :
						DIO->DDRA.Bit.B6 = Copy_Direction;
     1fa:	e0 e3       	ldi	r30, 0x30	; 48
     1fc:	f0 e0       	ldi	r31, 0x00	; 0
     1fe:	8b 81       	ldd	r24, Y+3	; 0x03
     200:	81 70       	andi	r24, 0x01	; 1
     202:	81 70       	andi	r24, 0x01	; 1
     204:	98 2f       	mov	r25, r24
     206:	92 95       	swap	r25
     208:	99 0f       	add	r25, r25
     20a:	99 0f       	add	r25, r25
     20c:	90 7c       	andi	r25, 0xC0	; 192
     20e:	82 85       	ldd	r24, Z+10	; 0x0a
     210:	8f 7b       	andi	r24, 0xBF	; 191
     212:	89 2b       	or	r24, r25
     214:	82 87       	std	Z+10, r24	; 0x0a
     216:	ef c1       	rjmp	.+990    	; 0x5f6 <DIO_voidSetPinDirection+0x564>
						break;
				case PIN_7 :
						DIO->DDRA.Bit.B7 = Copy_Direction;
     218:	e0 e3       	ldi	r30, 0x30	; 48
     21a:	f0 e0       	ldi	r31, 0x00	; 0
     21c:	8b 81       	ldd	r24, Y+3	; 0x03
     21e:	81 70       	andi	r24, 0x01	; 1
     220:	98 2f       	mov	r25, r24
     222:	97 95       	ror	r25
     224:	99 27       	eor	r25, r25
     226:	97 95       	ror	r25
     228:	82 85       	ldd	r24, Z+10	; 0x0a
     22a:	8f 77       	andi	r24, 0x7F	; 127
     22c:	89 2b       	or	r24, r25
     22e:	82 87       	std	Z+10, r24	; 0x0a
     230:	e2 c1       	rjmp	.+964    	; 0x5f6 <DIO_voidSetPinDirection+0x564>
				default: break;
			}
			break;

		case PORT_B:
			switch(Copy_PinId)
     232:	8a 81       	ldd	r24, Y+2	; 0x02
     234:	28 2f       	mov	r18, r24
     236:	30 e0       	ldi	r19, 0x00	; 0
     238:	39 87       	std	Y+9, r19	; 0x09
     23a:	28 87       	std	Y+8, r18	; 0x08
     23c:	88 85       	ldd	r24, Y+8	; 0x08
     23e:	99 85       	ldd	r25, Y+9	; 0x09
     240:	83 30       	cpi	r24, 0x03	; 3
     242:	91 05       	cpc	r25, r1
     244:	09 f4       	brne	.+2      	; 0x248 <DIO_voidSetPinDirection+0x1b6>
     246:	51 c0       	rjmp	.+162    	; 0x2ea <DIO_voidSetPinDirection+0x258>
     248:	28 85       	ldd	r18, Y+8	; 0x08
     24a:	39 85       	ldd	r19, Y+9	; 0x09
     24c:	24 30       	cpi	r18, 0x04	; 4
     24e:	31 05       	cpc	r19, r1
     250:	7c f4       	brge	.+30     	; 0x270 <DIO_voidSetPinDirection+0x1de>
     252:	88 85       	ldd	r24, Y+8	; 0x08
     254:	99 85       	ldd	r25, Y+9	; 0x09
     256:	81 30       	cpi	r24, 0x01	; 1
     258:	91 05       	cpc	r25, r1
     25a:	71 f1       	breq	.+92     	; 0x2b8 <DIO_voidSetPinDirection+0x226>
     25c:	28 85       	ldd	r18, Y+8	; 0x08
     25e:	39 85       	ldd	r19, Y+9	; 0x09
     260:	22 30       	cpi	r18, 0x02	; 2
     262:	31 05       	cpc	r19, r1
     264:	ac f5       	brge	.+106    	; 0x2d0 <DIO_voidSetPinDirection+0x23e>
     266:	88 85       	ldd	r24, Y+8	; 0x08
     268:	99 85       	ldd	r25, Y+9	; 0x09
     26a:	00 97       	sbiw	r24, 0x00	; 0
     26c:	d1 f0       	breq	.+52     	; 0x2a2 <DIO_voidSetPinDirection+0x210>
     26e:	c3 c1       	rjmp	.+902    	; 0x5f6 <DIO_voidSetPinDirection+0x564>
     270:	28 85       	ldd	r18, Y+8	; 0x08
     272:	39 85       	ldd	r19, Y+9	; 0x09
     274:	25 30       	cpi	r18, 0x05	; 5
     276:	31 05       	cpc	r19, r1
     278:	09 f4       	brne	.+2      	; 0x27c <DIO_voidSetPinDirection+0x1ea>
     27a:	52 c0       	rjmp	.+164    	; 0x320 <DIO_voidSetPinDirection+0x28e>
     27c:	88 85       	ldd	r24, Y+8	; 0x08
     27e:	99 85       	ldd	r25, Y+9	; 0x09
     280:	85 30       	cpi	r24, 0x05	; 5
     282:	91 05       	cpc	r25, r1
     284:	0c f4       	brge	.+2      	; 0x288 <DIO_voidSetPinDirection+0x1f6>
     286:	3f c0       	rjmp	.+126    	; 0x306 <DIO_voidSetPinDirection+0x274>
     288:	28 85       	ldd	r18, Y+8	; 0x08
     28a:	39 85       	ldd	r19, Y+9	; 0x09
     28c:	26 30       	cpi	r18, 0x06	; 6
     28e:	31 05       	cpc	r19, r1
     290:	09 f4       	brne	.+2      	; 0x294 <DIO_voidSetPinDirection+0x202>
     292:	54 c0       	rjmp	.+168    	; 0x33c <DIO_voidSetPinDirection+0x2aa>
     294:	88 85       	ldd	r24, Y+8	; 0x08
     296:	99 85       	ldd	r25, Y+9	; 0x09
     298:	87 30       	cpi	r24, 0x07	; 7
     29a:	91 05       	cpc	r25, r1
     29c:	09 f4       	brne	.+2      	; 0x2a0 <DIO_voidSetPinDirection+0x20e>
     29e:	5d c0       	rjmp	.+186    	; 0x35a <DIO_voidSetPinDirection+0x2c8>
     2a0:	aa c1       	rjmp	.+852    	; 0x5f6 <DIO_voidSetPinDirection+0x564>
			{
				case PIN_0 :
						DIO->DDRB.Bit.B0 = Copy_Direction;
     2a2:	e0 e3       	ldi	r30, 0x30	; 48
     2a4:	f0 e0       	ldi	r31, 0x00	; 0
     2a6:	8b 81       	ldd	r24, Y+3	; 0x03
     2a8:	81 70       	andi	r24, 0x01	; 1
     2aa:	98 2f       	mov	r25, r24
     2ac:	91 70       	andi	r25, 0x01	; 1
     2ae:	87 81       	ldd	r24, Z+7	; 0x07
     2b0:	8e 7f       	andi	r24, 0xFE	; 254
     2b2:	89 2b       	or	r24, r25
     2b4:	87 83       	std	Z+7, r24	; 0x07
     2b6:	9f c1       	rjmp	.+830    	; 0x5f6 <DIO_voidSetPinDirection+0x564>
						break;
				case PIN_1 :
						DIO->DDRB.Bit.B1 = Copy_Direction;
     2b8:	e0 e3       	ldi	r30, 0x30	; 48
     2ba:	f0 e0       	ldi	r31, 0x00	; 0
     2bc:	8b 81       	ldd	r24, Y+3	; 0x03
     2be:	81 70       	andi	r24, 0x01	; 1
     2c0:	81 70       	andi	r24, 0x01	; 1
     2c2:	98 2f       	mov	r25, r24
     2c4:	99 0f       	add	r25, r25
     2c6:	87 81       	ldd	r24, Z+7	; 0x07
     2c8:	8d 7f       	andi	r24, 0xFD	; 253
     2ca:	89 2b       	or	r24, r25
     2cc:	87 83       	std	Z+7, r24	; 0x07
     2ce:	93 c1       	rjmp	.+806    	; 0x5f6 <DIO_voidSetPinDirection+0x564>
						break;
				case PIN_2 :
						DIO->DDRB.Bit.B2 = Copy_Direction;
     2d0:	e0 e3       	ldi	r30, 0x30	; 48
     2d2:	f0 e0       	ldi	r31, 0x00	; 0
     2d4:	8b 81       	ldd	r24, Y+3	; 0x03
     2d6:	81 70       	andi	r24, 0x01	; 1
     2d8:	81 70       	andi	r24, 0x01	; 1
     2da:	98 2f       	mov	r25, r24
     2dc:	99 0f       	add	r25, r25
     2de:	99 0f       	add	r25, r25
     2e0:	87 81       	ldd	r24, Z+7	; 0x07
     2e2:	8b 7f       	andi	r24, 0xFB	; 251
     2e4:	89 2b       	or	r24, r25
     2e6:	87 83       	std	Z+7, r24	; 0x07
     2e8:	86 c1       	rjmp	.+780    	; 0x5f6 <DIO_voidSetPinDirection+0x564>
						break;
				case PIN_3 :
						DIO->DDRB.Bit.B3 = Copy_Direction;
     2ea:	e0 e3       	ldi	r30, 0x30	; 48
     2ec:	f0 e0       	ldi	r31, 0x00	; 0
     2ee:	8b 81       	ldd	r24, Y+3	; 0x03
     2f0:	81 70       	andi	r24, 0x01	; 1
     2f2:	81 70       	andi	r24, 0x01	; 1
     2f4:	98 2f       	mov	r25, r24
     2f6:	99 0f       	add	r25, r25
     2f8:	99 0f       	add	r25, r25
     2fa:	99 0f       	add	r25, r25
     2fc:	87 81       	ldd	r24, Z+7	; 0x07
     2fe:	87 7f       	andi	r24, 0xF7	; 247
     300:	89 2b       	or	r24, r25
     302:	87 83       	std	Z+7, r24	; 0x07
     304:	78 c1       	rjmp	.+752    	; 0x5f6 <DIO_voidSetPinDirection+0x564>
						break;
				case PIN_4 :
						DIO->DDRB.Bit.B4 = Copy_Direction;
     306:	e0 e3       	ldi	r30, 0x30	; 48
     308:	f0 e0       	ldi	r31, 0x00	; 0
     30a:	8b 81       	ldd	r24, Y+3	; 0x03
     30c:	81 70       	andi	r24, 0x01	; 1
     30e:	81 70       	andi	r24, 0x01	; 1
     310:	98 2f       	mov	r25, r24
     312:	92 95       	swap	r25
     314:	90 7f       	andi	r25, 0xF0	; 240
     316:	87 81       	ldd	r24, Z+7	; 0x07
     318:	8f 7e       	andi	r24, 0xEF	; 239
     31a:	89 2b       	or	r24, r25
     31c:	87 83       	std	Z+7, r24	; 0x07
     31e:	6b c1       	rjmp	.+726    	; 0x5f6 <DIO_voidSetPinDirection+0x564>
						break;
				case PIN_5 :
						DIO->DDRB.Bit.B5 = Copy_Direction;
     320:	e0 e3       	ldi	r30, 0x30	; 48
     322:	f0 e0       	ldi	r31, 0x00	; 0
     324:	8b 81       	ldd	r24, Y+3	; 0x03
     326:	81 70       	andi	r24, 0x01	; 1
     328:	81 70       	andi	r24, 0x01	; 1
     32a:	98 2f       	mov	r25, r24
     32c:	92 95       	swap	r25
     32e:	99 0f       	add	r25, r25
     330:	90 7e       	andi	r25, 0xE0	; 224
     332:	87 81       	ldd	r24, Z+7	; 0x07
     334:	8f 7d       	andi	r24, 0xDF	; 223
     336:	89 2b       	or	r24, r25
     338:	87 83       	std	Z+7, r24	; 0x07
     33a:	5d c1       	rjmp	.+698    	; 0x5f6 <DIO_voidSetPinDirection+0x564>
						break;
				case PIN_6 :
						DIO->DDRB.Bit.B6 = Copy_Direction;
     33c:	e0 e3       	ldi	r30, 0x30	; 48
     33e:	f0 e0       	ldi	r31, 0x00	; 0
     340:	8b 81       	ldd	r24, Y+3	; 0x03
     342:	81 70       	andi	r24, 0x01	; 1
     344:	81 70       	andi	r24, 0x01	; 1
     346:	98 2f       	mov	r25, r24
     348:	92 95       	swap	r25
     34a:	99 0f       	add	r25, r25
     34c:	99 0f       	add	r25, r25
     34e:	90 7c       	andi	r25, 0xC0	; 192
     350:	87 81       	ldd	r24, Z+7	; 0x07
     352:	8f 7b       	andi	r24, 0xBF	; 191
     354:	89 2b       	or	r24, r25
     356:	87 83       	std	Z+7, r24	; 0x07
     358:	4e c1       	rjmp	.+668    	; 0x5f6 <DIO_voidSetPinDirection+0x564>
						break;
				case PIN_7 :
						DIO->DDRB.Bit.B7 = Copy_Direction;
     35a:	e0 e3       	ldi	r30, 0x30	; 48
     35c:	f0 e0       	ldi	r31, 0x00	; 0
     35e:	8b 81       	ldd	r24, Y+3	; 0x03
     360:	81 70       	andi	r24, 0x01	; 1
     362:	98 2f       	mov	r25, r24
     364:	97 95       	ror	r25
     366:	99 27       	eor	r25, r25
     368:	97 95       	ror	r25
     36a:	87 81       	ldd	r24, Z+7	; 0x07
     36c:	8f 77       	andi	r24, 0x7F	; 127
     36e:	89 2b       	or	r24, r25
     370:	87 83       	std	Z+7, r24	; 0x07
     372:	41 c1       	rjmp	.+642    	; 0x5f6 <DIO_voidSetPinDirection+0x564>
			}
			break;


		case PORT_C:
			switch(Copy_PinId)
     374:	8a 81       	ldd	r24, Y+2	; 0x02
     376:	28 2f       	mov	r18, r24
     378:	30 e0       	ldi	r19, 0x00	; 0
     37a:	3f 83       	std	Y+7, r19	; 0x07
     37c:	2e 83       	std	Y+6, r18	; 0x06
     37e:	8e 81       	ldd	r24, Y+6	; 0x06
     380:	9f 81       	ldd	r25, Y+7	; 0x07
     382:	83 30       	cpi	r24, 0x03	; 3
     384:	91 05       	cpc	r25, r1
     386:	09 f4       	brne	.+2      	; 0x38a <DIO_voidSetPinDirection+0x2f8>
     388:	51 c0       	rjmp	.+162    	; 0x42c <DIO_voidSetPinDirection+0x39a>
     38a:	2e 81       	ldd	r18, Y+6	; 0x06
     38c:	3f 81       	ldd	r19, Y+7	; 0x07
     38e:	24 30       	cpi	r18, 0x04	; 4
     390:	31 05       	cpc	r19, r1
     392:	7c f4       	brge	.+30     	; 0x3b2 <DIO_voidSetPinDirection+0x320>
     394:	8e 81       	ldd	r24, Y+6	; 0x06
     396:	9f 81       	ldd	r25, Y+7	; 0x07
     398:	81 30       	cpi	r24, 0x01	; 1
     39a:	91 05       	cpc	r25, r1
     39c:	71 f1       	breq	.+92     	; 0x3fa <DIO_voidSetPinDirection+0x368>
     39e:	2e 81       	ldd	r18, Y+6	; 0x06
     3a0:	3f 81       	ldd	r19, Y+7	; 0x07
     3a2:	22 30       	cpi	r18, 0x02	; 2
     3a4:	31 05       	cpc	r19, r1
     3a6:	ac f5       	brge	.+106    	; 0x412 <DIO_voidSetPinDirection+0x380>
     3a8:	8e 81       	ldd	r24, Y+6	; 0x06
     3aa:	9f 81       	ldd	r25, Y+7	; 0x07
     3ac:	00 97       	sbiw	r24, 0x00	; 0
     3ae:	d1 f0       	breq	.+52     	; 0x3e4 <DIO_voidSetPinDirection+0x352>
     3b0:	22 c1       	rjmp	.+580    	; 0x5f6 <DIO_voidSetPinDirection+0x564>
     3b2:	2e 81       	ldd	r18, Y+6	; 0x06
     3b4:	3f 81       	ldd	r19, Y+7	; 0x07
     3b6:	25 30       	cpi	r18, 0x05	; 5
     3b8:	31 05       	cpc	r19, r1
     3ba:	09 f4       	brne	.+2      	; 0x3be <DIO_voidSetPinDirection+0x32c>
     3bc:	52 c0       	rjmp	.+164    	; 0x462 <DIO_voidSetPinDirection+0x3d0>
     3be:	8e 81       	ldd	r24, Y+6	; 0x06
     3c0:	9f 81       	ldd	r25, Y+7	; 0x07
     3c2:	85 30       	cpi	r24, 0x05	; 5
     3c4:	91 05       	cpc	r25, r1
     3c6:	0c f4       	brge	.+2      	; 0x3ca <DIO_voidSetPinDirection+0x338>
     3c8:	3f c0       	rjmp	.+126    	; 0x448 <DIO_voidSetPinDirection+0x3b6>
     3ca:	2e 81       	ldd	r18, Y+6	; 0x06
     3cc:	3f 81       	ldd	r19, Y+7	; 0x07
     3ce:	26 30       	cpi	r18, 0x06	; 6
     3d0:	31 05       	cpc	r19, r1
     3d2:	09 f4       	brne	.+2      	; 0x3d6 <DIO_voidSetPinDirection+0x344>
     3d4:	54 c0       	rjmp	.+168    	; 0x47e <DIO_voidSetPinDirection+0x3ec>
     3d6:	8e 81       	ldd	r24, Y+6	; 0x06
     3d8:	9f 81       	ldd	r25, Y+7	; 0x07
     3da:	87 30       	cpi	r24, 0x07	; 7
     3dc:	91 05       	cpc	r25, r1
     3de:	09 f4       	brne	.+2      	; 0x3e2 <DIO_voidSetPinDirection+0x350>
     3e0:	5d c0       	rjmp	.+186    	; 0x49c <DIO_voidSetPinDirection+0x40a>
     3e2:	09 c1       	rjmp	.+530    	; 0x5f6 <DIO_voidSetPinDirection+0x564>
			{
				case PIN_0 :
						DIO->DDRC.Bit.B0 = Copy_Direction;
     3e4:	e0 e3       	ldi	r30, 0x30	; 48
     3e6:	f0 e0       	ldi	r31, 0x00	; 0
     3e8:	8b 81       	ldd	r24, Y+3	; 0x03
     3ea:	81 70       	andi	r24, 0x01	; 1
     3ec:	98 2f       	mov	r25, r24
     3ee:	91 70       	andi	r25, 0x01	; 1
     3f0:	84 81       	ldd	r24, Z+4	; 0x04
     3f2:	8e 7f       	andi	r24, 0xFE	; 254
     3f4:	89 2b       	or	r24, r25
     3f6:	84 83       	std	Z+4, r24	; 0x04
     3f8:	fe c0       	rjmp	.+508    	; 0x5f6 <DIO_voidSetPinDirection+0x564>
						break;
				case PIN_1 :
						DIO->DDRC.Bit.B1 = Copy_Direction;
     3fa:	e0 e3       	ldi	r30, 0x30	; 48
     3fc:	f0 e0       	ldi	r31, 0x00	; 0
     3fe:	8b 81       	ldd	r24, Y+3	; 0x03
     400:	81 70       	andi	r24, 0x01	; 1
     402:	81 70       	andi	r24, 0x01	; 1
     404:	98 2f       	mov	r25, r24
     406:	99 0f       	add	r25, r25
     408:	84 81       	ldd	r24, Z+4	; 0x04
     40a:	8d 7f       	andi	r24, 0xFD	; 253
     40c:	89 2b       	or	r24, r25
     40e:	84 83       	std	Z+4, r24	; 0x04
     410:	f2 c0       	rjmp	.+484    	; 0x5f6 <DIO_voidSetPinDirection+0x564>
						break;
				case PIN_2 :
						DIO->DDRC.Bit.B2 = Copy_Direction;
     412:	e0 e3       	ldi	r30, 0x30	; 48
     414:	f0 e0       	ldi	r31, 0x00	; 0
     416:	8b 81       	ldd	r24, Y+3	; 0x03
     418:	81 70       	andi	r24, 0x01	; 1
     41a:	81 70       	andi	r24, 0x01	; 1
     41c:	98 2f       	mov	r25, r24
     41e:	99 0f       	add	r25, r25
     420:	99 0f       	add	r25, r25
     422:	84 81       	ldd	r24, Z+4	; 0x04
     424:	8b 7f       	andi	r24, 0xFB	; 251
     426:	89 2b       	or	r24, r25
     428:	84 83       	std	Z+4, r24	; 0x04
     42a:	e5 c0       	rjmp	.+458    	; 0x5f6 <DIO_voidSetPinDirection+0x564>
						break;
				case PIN_3 :
						DIO->DDRC.Bit.B3 = Copy_Direction;
     42c:	e0 e3       	ldi	r30, 0x30	; 48
     42e:	f0 e0       	ldi	r31, 0x00	; 0
     430:	8b 81       	ldd	r24, Y+3	; 0x03
     432:	81 70       	andi	r24, 0x01	; 1
     434:	81 70       	andi	r24, 0x01	; 1
     436:	98 2f       	mov	r25, r24
     438:	99 0f       	add	r25, r25
     43a:	99 0f       	add	r25, r25
     43c:	99 0f       	add	r25, r25
     43e:	84 81       	ldd	r24, Z+4	; 0x04
     440:	87 7f       	andi	r24, 0xF7	; 247
     442:	89 2b       	or	r24, r25
     444:	84 83       	std	Z+4, r24	; 0x04
     446:	d7 c0       	rjmp	.+430    	; 0x5f6 <DIO_voidSetPinDirection+0x564>
						break;
				case PIN_4 :
						DIO->DDRC.Bit.B4 = Copy_Direction;
     448:	e0 e3       	ldi	r30, 0x30	; 48
     44a:	f0 e0       	ldi	r31, 0x00	; 0
     44c:	8b 81       	ldd	r24, Y+3	; 0x03
     44e:	81 70       	andi	r24, 0x01	; 1
     450:	81 70       	andi	r24, 0x01	; 1
     452:	98 2f       	mov	r25, r24
     454:	92 95       	swap	r25
     456:	90 7f       	andi	r25, 0xF0	; 240
     458:	84 81       	ldd	r24, Z+4	; 0x04
     45a:	8f 7e       	andi	r24, 0xEF	; 239
     45c:	89 2b       	or	r24, r25
     45e:	84 83       	std	Z+4, r24	; 0x04
     460:	ca c0       	rjmp	.+404    	; 0x5f6 <DIO_voidSetPinDirection+0x564>
						break;
				case PIN_5 :
						DIO->DDRC.Bit.B5 = Copy_Direction;
     462:	e0 e3       	ldi	r30, 0x30	; 48
     464:	f0 e0       	ldi	r31, 0x00	; 0
     466:	8b 81       	ldd	r24, Y+3	; 0x03
     468:	81 70       	andi	r24, 0x01	; 1
     46a:	81 70       	andi	r24, 0x01	; 1
     46c:	98 2f       	mov	r25, r24
     46e:	92 95       	swap	r25
     470:	99 0f       	add	r25, r25
     472:	90 7e       	andi	r25, 0xE0	; 224
     474:	84 81       	ldd	r24, Z+4	; 0x04
     476:	8f 7d       	andi	r24, 0xDF	; 223
     478:	89 2b       	or	r24, r25
     47a:	84 83       	std	Z+4, r24	; 0x04
     47c:	bc c0       	rjmp	.+376    	; 0x5f6 <DIO_voidSetPinDirection+0x564>
						break;
				case PIN_6 :
						DIO->DDRC.Bit.B6 = Copy_Direction;
     47e:	e0 e3       	ldi	r30, 0x30	; 48
     480:	f0 e0       	ldi	r31, 0x00	; 0
     482:	8b 81       	ldd	r24, Y+3	; 0x03
     484:	81 70       	andi	r24, 0x01	; 1
     486:	81 70       	andi	r24, 0x01	; 1
     488:	98 2f       	mov	r25, r24
     48a:	92 95       	swap	r25
     48c:	99 0f       	add	r25, r25
     48e:	99 0f       	add	r25, r25
     490:	90 7c       	andi	r25, 0xC0	; 192
     492:	84 81       	ldd	r24, Z+4	; 0x04
     494:	8f 7b       	andi	r24, 0xBF	; 191
     496:	89 2b       	or	r24, r25
     498:	84 83       	std	Z+4, r24	; 0x04
     49a:	ad c0       	rjmp	.+346    	; 0x5f6 <DIO_voidSetPinDirection+0x564>
						break;
				case PIN_7 :
						DIO->DDRC.Bit.B7 = Copy_Direction;
     49c:	e0 e3       	ldi	r30, 0x30	; 48
     49e:	f0 e0       	ldi	r31, 0x00	; 0
     4a0:	8b 81       	ldd	r24, Y+3	; 0x03
     4a2:	81 70       	andi	r24, 0x01	; 1
     4a4:	98 2f       	mov	r25, r24
     4a6:	97 95       	ror	r25
     4a8:	99 27       	eor	r25, r25
     4aa:	97 95       	ror	r25
     4ac:	84 81       	ldd	r24, Z+4	; 0x04
     4ae:	8f 77       	andi	r24, 0x7F	; 127
     4b0:	89 2b       	or	r24, r25
     4b2:	84 83       	std	Z+4, r24	; 0x04
     4b4:	a0 c0       	rjmp	.+320    	; 0x5f6 <DIO_voidSetPinDirection+0x564>
				default: break;
			}
			break;

		case PORT_D:
			switch(Copy_PinId)
     4b6:	8a 81       	ldd	r24, Y+2	; 0x02
     4b8:	28 2f       	mov	r18, r24
     4ba:	30 e0       	ldi	r19, 0x00	; 0
     4bc:	3d 83       	std	Y+5, r19	; 0x05
     4be:	2c 83       	std	Y+4, r18	; 0x04
     4c0:	8c 81       	ldd	r24, Y+4	; 0x04
     4c2:	9d 81       	ldd	r25, Y+5	; 0x05
     4c4:	83 30       	cpi	r24, 0x03	; 3
     4c6:	91 05       	cpc	r25, r1
     4c8:	09 f4       	brne	.+2      	; 0x4cc <DIO_voidSetPinDirection+0x43a>
     4ca:	51 c0       	rjmp	.+162    	; 0x56e <DIO_voidSetPinDirection+0x4dc>
     4cc:	2c 81       	ldd	r18, Y+4	; 0x04
     4ce:	3d 81       	ldd	r19, Y+5	; 0x05
     4d0:	24 30       	cpi	r18, 0x04	; 4
     4d2:	31 05       	cpc	r19, r1
     4d4:	7c f4       	brge	.+30     	; 0x4f4 <DIO_voidSetPinDirection+0x462>
     4d6:	8c 81       	ldd	r24, Y+4	; 0x04
     4d8:	9d 81       	ldd	r25, Y+5	; 0x05
     4da:	81 30       	cpi	r24, 0x01	; 1
     4dc:	91 05       	cpc	r25, r1
     4de:	71 f1       	breq	.+92     	; 0x53c <DIO_voidSetPinDirection+0x4aa>
     4e0:	2c 81       	ldd	r18, Y+4	; 0x04
     4e2:	3d 81       	ldd	r19, Y+5	; 0x05
     4e4:	22 30       	cpi	r18, 0x02	; 2
     4e6:	31 05       	cpc	r19, r1
     4e8:	ac f5       	brge	.+106    	; 0x554 <DIO_voidSetPinDirection+0x4c2>
     4ea:	8c 81       	ldd	r24, Y+4	; 0x04
     4ec:	9d 81       	ldd	r25, Y+5	; 0x05
     4ee:	00 97       	sbiw	r24, 0x00	; 0
     4f0:	d1 f0       	breq	.+52     	; 0x526 <DIO_voidSetPinDirection+0x494>
     4f2:	81 c0       	rjmp	.+258    	; 0x5f6 <DIO_voidSetPinDirection+0x564>
     4f4:	2c 81       	ldd	r18, Y+4	; 0x04
     4f6:	3d 81       	ldd	r19, Y+5	; 0x05
     4f8:	25 30       	cpi	r18, 0x05	; 5
     4fa:	31 05       	cpc	r19, r1
     4fc:	09 f4       	brne	.+2      	; 0x500 <DIO_voidSetPinDirection+0x46e>
     4fe:	52 c0       	rjmp	.+164    	; 0x5a4 <DIO_voidSetPinDirection+0x512>
     500:	8c 81       	ldd	r24, Y+4	; 0x04
     502:	9d 81       	ldd	r25, Y+5	; 0x05
     504:	85 30       	cpi	r24, 0x05	; 5
     506:	91 05       	cpc	r25, r1
     508:	0c f4       	brge	.+2      	; 0x50c <DIO_voidSetPinDirection+0x47a>
     50a:	3f c0       	rjmp	.+126    	; 0x58a <DIO_voidSetPinDirection+0x4f8>
     50c:	2c 81       	ldd	r18, Y+4	; 0x04
     50e:	3d 81       	ldd	r19, Y+5	; 0x05
     510:	26 30       	cpi	r18, 0x06	; 6
     512:	31 05       	cpc	r19, r1
     514:	09 f4       	brne	.+2      	; 0x518 <DIO_voidSetPinDirection+0x486>
     516:	54 c0       	rjmp	.+168    	; 0x5c0 <DIO_voidSetPinDirection+0x52e>
     518:	8c 81       	ldd	r24, Y+4	; 0x04
     51a:	9d 81       	ldd	r25, Y+5	; 0x05
     51c:	87 30       	cpi	r24, 0x07	; 7
     51e:	91 05       	cpc	r25, r1
     520:	09 f4       	brne	.+2      	; 0x524 <DIO_voidSetPinDirection+0x492>
     522:	5d c0       	rjmp	.+186    	; 0x5de <DIO_voidSetPinDirection+0x54c>
     524:	68 c0       	rjmp	.+208    	; 0x5f6 <DIO_voidSetPinDirection+0x564>
			{
				case PIN_0 :
						DIO->DDRD.Bit.B0 = Copy_Direction;
     526:	e0 e3       	ldi	r30, 0x30	; 48
     528:	f0 e0       	ldi	r31, 0x00	; 0
     52a:	8b 81       	ldd	r24, Y+3	; 0x03
     52c:	81 70       	andi	r24, 0x01	; 1
     52e:	98 2f       	mov	r25, r24
     530:	91 70       	andi	r25, 0x01	; 1
     532:	81 81       	ldd	r24, Z+1	; 0x01
     534:	8e 7f       	andi	r24, 0xFE	; 254
     536:	89 2b       	or	r24, r25
     538:	81 83       	std	Z+1, r24	; 0x01
     53a:	5d c0       	rjmp	.+186    	; 0x5f6 <DIO_voidSetPinDirection+0x564>
						break;
				case PIN_1 :
						DIO->DDRD.Bit.B1 = Copy_Direction;
     53c:	e0 e3       	ldi	r30, 0x30	; 48
     53e:	f0 e0       	ldi	r31, 0x00	; 0
     540:	8b 81       	ldd	r24, Y+3	; 0x03
     542:	81 70       	andi	r24, 0x01	; 1
     544:	81 70       	andi	r24, 0x01	; 1
     546:	98 2f       	mov	r25, r24
     548:	99 0f       	add	r25, r25
     54a:	81 81       	ldd	r24, Z+1	; 0x01
     54c:	8d 7f       	andi	r24, 0xFD	; 253
     54e:	89 2b       	or	r24, r25
     550:	81 83       	std	Z+1, r24	; 0x01
     552:	51 c0       	rjmp	.+162    	; 0x5f6 <DIO_voidSetPinDirection+0x564>
						break;
				case PIN_2 :
						DIO->DDRD.Bit.B2 = Copy_Direction;
     554:	e0 e3       	ldi	r30, 0x30	; 48
     556:	f0 e0       	ldi	r31, 0x00	; 0
     558:	8b 81       	ldd	r24, Y+3	; 0x03
     55a:	81 70       	andi	r24, 0x01	; 1
     55c:	81 70       	andi	r24, 0x01	; 1
     55e:	98 2f       	mov	r25, r24
     560:	99 0f       	add	r25, r25
     562:	99 0f       	add	r25, r25
     564:	81 81       	ldd	r24, Z+1	; 0x01
     566:	8b 7f       	andi	r24, 0xFB	; 251
     568:	89 2b       	or	r24, r25
     56a:	81 83       	std	Z+1, r24	; 0x01
     56c:	44 c0       	rjmp	.+136    	; 0x5f6 <DIO_voidSetPinDirection+0x564>
						break;
				case PIN_3 :
						DIO->DDRD.Bit.B3 = Copy_Direction;
     56e:	e0 e3       	ldi	r30, 0x30	; 48
     570:	f0 e0       	ldi	r31, 0x00	; 0
     572:	8b 81       	ldd	r24, Y+3	; 0x03
     574:	81 70       	andi	r24, 0x01	; 1
     576:	81 70       	andi	r24, 0x01	; 1
     578:	98 2f       	mov	r25, r24
     57a:	99 0f       	add	r25, r25
     57c:	99 0f       	add	r25, r25
     57e:	99 0f       	add	r25, r25
     580:	81 81       	ldd	r24, Z+1	; 0x01
     582:	87 7f       	andi	r24, 0xF7	; 247
     584:	89 2b       	or	r24, r25
     586:	81 83       	std	Z+1, r24	; 0x01
     588:	36 c0       	rjmp	.+108    	; 0x5f6 <DIO_voidSetPinDirection+0x564>
						break;
				case PIN_4 :
						DIO->DDRD.Bit.B4 = Copy_Direction;
     58a:	e0 e3       	ldi	r30, 0x30	; 48
     58c:	f0 e0       	ldi	r31, 0x00	; 0
     58e:	8b 81       	ldd	r24, Y+3	; 0x03
     590:	81 70       	andi	r24, 0x01	; 1
     592:	81 70       	andi	r24, 0x01	; 1
     594:	98 2f       	mov	r25, r24
     596:	92 95       	swap	r25
     598:	90 7f       	andi	r25, 0xF0	; 240
     59a:	81 81       	ldd	r24, Z+1	; 0x01
     59c:	8f 7e       	andi	r24, 0xEF	; 239
     59e:	89 2b       	or	r24, r25
     5a0:	81 83       	std	Z+1, r24	; 0x01
     5a2:	29 c0       	rjmp	.+82     	; 0x5f6 <DIO_voidSetPinDirection+0x564>
						break;
				case PIN_5 :
						DIO->DDRD.Bit.B5 = Copy_Direction;
     5a4:	e0 e3       	ldi	r30, 0x30	; 48
     5a6:	f0 e0       	ldi	r31, 0x00	; 0
     5a8:	8b 81       	ldd	r24, Y+3	; 0x03
     5aa:	81 70       	andi	r24, 0x01	; 1
     5ac:	81 70       	andi	r24, 0x01	; 1
     5ae:	98 2f       	mov	r25, r24
     5b0:	92 95       	swap	r25
     5b2:	99 0f       	add	r25, r25
     5b4:	90 7e       	andi	r25, 0xE0	; 224
     5b6:	81 81       	ldd	r24, Z+1	; 0x01
     5b8:	8f 7d       	andi	r24, 0xDF	; 223
     5ba:	89 2b       	or	r24, r25
     5bc:	81 83       	std	Z+1, r24	; 0x01
     5be:	1b c0       	rjmp	.+54     	; 0x5f6 <DIO_voidSetPinDirection+0x564>
						break;
				case PIN_6 :
						DIO->DDRD.Bit.B6 = Copy_Direction;
     5c0:	e0 e3       	ldi	r30, 0x30	; 48
     5c2:	f0 e0       	ldi	r31, 0x00	; 0
     5c4:	8b 81       	ldd	r24, Y+3	; 0x03
     5c6:	81 70       	andi	r24, 0x01	; 1
     5c8:	81 70       	andi	r24, 0x01	; 1
     5ca:	98 2f       	mov	r25, r24
     5cc:	92 95       	swap	r25
     5ce:	99 0f       	add	r25, r25
     5d0:	99 0f       	add	r25, r25
     5d2:	90 7c       	andi	r25, 0xC0	; 192
     5d4:	81 81       	ldd	r24, Z+1	; 0x01
     5d6:	8f 7b       	andi	r24, 0xBF	; 191
     5d8:	89 2b       	or	r24, r25
     5da:	81 83       	std	Z+1, r24	; 0x01
     5dc:	0c c0       	rjmp	.+24     	; 0x5f6 <DIO_voidSetPinDirection+0x564>
						break;
				case PIN_7 :
						DIO->DDRD.Bit.B7 = Copy_Direction;
     5de:	e0 e3       	ldi	r30, 0x30	; 48
     5e0:	f0 e0       	ldi	r31, 0x00	; 0
     5e2:	8b 81       	ldd	r24, Y+3	; 0x03
     5e4:	81 70       	andi	r24, 0x01	; 1
     5e6:	98 2f       	mov	r25, r24
     5e8:	97 95       	ror	r25
     5ea:	99 27       	eor	r25, r25
     5ec:	97 95       	ror	r25
     5ee:	81 81       	ldd	r24, Z+1	; 0x01
     5f0:	8f 77       	andi	r24, 0x7F	; 127
     5f2:	89 2b       	or	r24, r25
     5f4:	81 83       	std	Z+1, r24	; 0x01
						break;
				default: break;
			}
			break;
	}
}
     5f6:	2d 96       	adiw	r28, 0x0d	; 13
     5f8:	0f b6       	in	r0, 0x3f	; 63
     5fa:	f8 94       	cli
     5fc:	de bf       	out	0x3e, r29	; 62
     5fe:	0f be       	out	0x3f, r0	; 63
     600:	cd bf       	out	0x3d, r28	; 61
     602:	cf 91       	pop	r28
     604:	df 91       	pop	r29
     606:	08 95       	ret

00000608 <DIO_voidSetPinValue>:




void DIO_voidSetPinValue(PORT_t Copy_PortId,PIN_t Copy_PinId,VALUE_t Copy_Value)
{
     608:	df 93       	push	r29
     60a:	cf 93       	push	r28
     60c:	cd b7       	in	r28, 0x3d	; 61
     60e:	de b7       	in	r29, 0x3e	; 62
     610:	2d 97       	sbiw	r28, 0x0d	; 13
     612:	0f b6       	in	r0, 0x3f	; 63
     614:	f8 94       	cli
     616:	de bf       	out	0x3e, r29	; 62
     618:	0f be       	out	0x3f, r0	; 63
     61a:	cd bf       	out	0x3d, r28	; 61
     61c:	89 83       	std	Y+1, r24	; 0x01
     61e:	6a 83       	std	Y+2, r22	; 0x02
     620:	4b 83       	std	Y+3, r20	; 0x03
	switch(Copy_PortId)
     622:	89 81       	ldd	r24, Y+1	; 0x01
     624:	28 2f       	mov	r18, r24
     626:	30 e0       	ldi	r19, 0x00	; 0
     628:	3d 87       	std	Y+13, r19	; 0x0d
     62a:	2c 87       	std	Y+12, r18	; 0x0c
     62c:	8c 85       	ldd	r24, Y+12	; 0x0c
     62e:	9d 85       	ldd	r25, Y+13	; 0x0d
     630:	81 30       	cpi	r24, 0x01	; 1
     632:	91 05       	cpc	r25, r1
     634:	09 f4       	brne	.+2      	; 0x638 <DIO_voidSetPinValue+0x30>
     636:	b8 c0       	rjmp	.+368    	; 0x7a8 <DIO_voidSetPinValue+0x1a0>
     638:	2c 85       	ldd	r18, Y+12	; 0x0c
     63a:	3d 85       	ldd	r19, Y+13	; 0x0d
     63c:	22 30       	cpi	r18, 0x02	; 2
     63e:	31 05       	cpc	r19, r1
     640:	2c f4       	brge	.+10     	; 0x64c <DIO_voidSetPinValue+0x44>
     642:	8c 85       	ldd	r24, Y+12	; 0x0c
     644:	9d 85       	ldd	r25, Y+13	; 0x0d
     646:	00 97       	sbiw	r24, 0x00	; 0
     648:	71 f0       	breq	.+28     	; 0x666 <DIO_voidSetPinValue+0x5e>
     64a:	90 c2       	rjmp	.+1312   	; 0xb6c <__stack+0x30d>
     64c:	2c 85       	ldd	r18, Y+12	; 0x0c
     64e:	3d 85       	ldd	r19, Y+13	; 0x0d
     650:	22 30       	cpi	r18, 0x02	; 2
     652:	31 05       	cpc	r19, r1
     654:	09 f4       	brne	.+2      	; 0x658 <DIO_voidSetPinValue+0x50>
     656:	49 c1       	rjmp	.+658    	; 0x8ea <__stack+0x8b>
     658:	8c 85       	ldd	r24, Y+12	; 0x0c
     65a:	9d 85       	ldd	r25, Y+13	; 0x0d
     65c:	83 30       	cpi	r24, 0x03	; 3
     65e:	91 05       	cpc	r25, r1
     660:	09 f4       	brne	.+2      	; 0x664 <DIO_voidSetPinValue+0x5c>
     662:	e4 c1       	rjmp	.+968    	; 0xa2c <__stack+0x1cd>
     664:	83 c2       	rjmp	.+1286   	; 0xb6c <__stack+0x30d>
	{
		case PORT_A:
			switch(Copy_PinId)
     666:	8a 81       	ldd	r24, Y+2	; 0x02
     668:	28 2f       	mov	r18, r24
     66a:	30 e0       	ldi	r19, 0x00	; 0
     66c:	3b 87       	std	Y+11, r19	; 0x0b
     66e:	2a 87       	std	Y+10, r18	; 0x0a
     670:	8a 85       	ldd	r24, Y+10	; 0x0a
     672:	9b 85       	ldd	r25, Y+11	; 0x0b
     674:	83 30       	cpi	r24, 0x03	; 3
     676:	91 05       	cpc	r25, r1
     678:	09 f4       	brne	.+2      	; 0x67c <DIO_voidSetPinValue+0x74>
     67a:	51 c0       	rjmp	.+162    	; 0x71e <DIO_voidSetPinValue+0x116>
     67c:	2a 85       	ldd	r18, Y+10	; 0x0a
     67e:	3b 85       	ldd	r19, Y+11	; 0x0b
     680:	24 30       	cpi	r18, 0x04	; 4
     682:	31 05       	cpc	r19, r1
     684:	7c f4       	brge	.+30     	; 0x6a4 <DIO_voidSetPinValue+0x9c>
     686:	8a 85       	ldd	r24, Y+10	; 0x0a
     688:	9b 85       	ldd	r25, Y+11	; 0x0b
     68a:	81 30       	cpi	r24, 0x01	; 1
     68c:	91 05       	cpc	r25, r1
     68e:	71 f1       	breq	.+92     	; 0x6ec <DIO_voidSetPinValue+0xe4>
     690:	2a 85       	ldd	r18, Y+10	; 0x0a
     692:	3b 85       	ldd	r19, Y+11	; 0x0b
     694:	22 30       	cpi	r18, 0x02	; 2
     696:	31 05       	cpc	r19, r1
     698:	ac f5       	brge	.+106    	; 0x704 <DIO_voidSetPinValue+0xfc>
     69a:	8a 85       	ldd	r24, Y+10	; 0x0a
     69c:	9b 85       	ldd	r25, Y+11	; 0x0b
     69e:	00 97       	sbiw	r24, 0x00	; 0
     6a0:	d1 f0       	breq	.+52     	; 0x6d6 <DIO_voidSetPinValue+0xce>
     6a2:	64 c2       	rjmp	.+1224   	; 0xb6c <__stack+0x30d>
     6a4:	2a 85       	ldd	r18, Y+10	; 0x0a
     6a6:	3b 85       	ldd	r19, Y+11	; 0x0b
     6a8:	25 30       	cpi	r18, 0x05	; 5
     6aa:	31 05       	cpc	r19, r1
     6ac:	09 f4       	brne	.+2      	; 0x6b0 <DIO_voidSetPinValue+0xa8>
     6ae:	52 c0       	rjmp	.+164    	; 0x754 <DIO_voidSetPinValue+0x14c>
     6b0:	8a 85       	ldd	r24, Y+10	; 0x0a
     6b2:	9b 85       	ldd	r25, Y+11	; 0x0b
     6b4:	85 30       	cpi	r24, 0x05	; 5
     6b6:	91 05       	cpc	r25, r1
     6b8:	0c f4       	brge	.+2      	; 0x6bc <DIO_voidSetPinValue+0xb4>
     6ba:	3f c0       	rjmp	.+126    	; 0x73a <DIO_voidSetPinValue+0x132>
     6bc:	2a 85       	ldd	r18, Y+10	; 0x0a
     6be:	3b 85       	ldd	r19, Y+11	; 0x0b
     6c0:	26 30       	cpi	r18, 0x06	; 6
     6c2:	31 05       	cpc	r19, r1
     6c4:	09 f4       	brne	.+2      	; 0x6c8 <DIO_voidSetPinValue+0xc0>
     6c6:	54 c0       	rjmp	.+168    	; 0x770 <DIO_voidSetPinValue+0x168>
     6c8:	8a 85       	ldd	r24, Y+10	; 0x0a
     6ca:	9b 85       	ldd	r25, Y+11	; 0x0b
     6cc:	87 30       	cpi	r24, 0x07	; 7
     6ce:	91 05       	cpc	r25, r1
     6d0:	09 f4       	brne	.+2      	; 0x6d4 <DIO_voidSetPinValue+0xcc>
     6d2:	5d c0       	rjmp	.+186    	; 0x78e <DIO_voidSetPinValue+0x186>
     6d4:	4b c2       	rjmp	.+1174   	; 0xb6c <__stack+0x30d>
			{
				case PIN_0 :
						DIO->PORTA.Bit.B0 = Copy_Value;
     6d6:	e0 e3       	ldi	r30, 0x30	; 48
     6d8:	f0 e0       	ldi	r31, 0x00	; 0
     6da:	8b 81       	ldd	r24, Y+3	; 0x03
     6dc:	81 70       	andi	r24, 0x01	; 1
     6de:	98 2f       	mov	r25, r24
     6e0:	91 70       	andi	r25, 0x01	; 1
     6e2:	83 85       	ldd	r24, Z+11	; 0x0b
     6e4:	8e 7f       	andi	r24, 0xFE	; 254
     6e6:	89 2b       	or	r24, r25
     6e8:	83 87       	std	Z+11, r24	; 0x0b
     6ea:	40 c2       	rjmp	.+1152   	; 0xb6c <__stack+0x30d>
						break;
				case PIN_1 :
						DIO->PORTA.Bit.B1 = Copy_Value;
     6ec:	e0 e3       	ldi	r30, 0x30	; 48
     6ee:	f0 e0       	ldi	r31, 0x00	; 0
     6f0:	8b 81       	ldd	r24, Y+3	; 0x03
     6f2:	81 70       	andi	r24, 0x01	; 1
     6f4:	81 70       	andi	r24, 0x01	; 1
     6f6:	98 2f       	mov	r25, r24
     6f8:	99 0f       	add	r25, r25
     6fa:	83 85       	ldd	r24, Z+11	; 0x0b
     6fc:	8d 7f       	andi	r24, 0xFD	; 253
     6fe:	89 2b       	or	r24, r25
     700:	83 87       	std	Z+11, r24	; 0x0b
     702:	34 c2       	rjmp	.+1128   	; 0xb6c <__stack+0x30d>
						break;
				case PIN_2 :
						DIO->PORTA.Bit.B2 = Copy_Value;
     704:	e0 e3       	ldi	r30, 0x30	; 48
     706:	f0 e0       	ldi	r31, 0x00	; 0
     708:	8b 81       	ldd	r24, Y+3	; 0x03
     70a:	81 70       	andi	r24, 0x01	; 1
     70c:	81 70       	andi	r24, 0x01	; 1
     70e:	98 2f       	mov	r25, r24
     710:	99 0f       	add	r25, r25
     712:	99 0f       	add	r25, r25
     714:	83 85       	ldd	r24, Z+11	; 0x0b
     716:	8b 7f       	andi	r24, 0xFB	; 251
     718:	89 2b       	or	r24, r25
     71a:	83 87       	std	Z+11, r24	; 0x0b
     71c:	27 c2       	rjmp	.+1102   	; 0xb6c <__stack+0x30d>
						break;
				case PIN_3 :
						DIO->PORTA.Bit.B3 = Copy_Value;
     71e:	e0 e3       	ldi	r30, 0x30	; 48
     720:	f0 e0       	ldi	r31, 0x00	; 0
     722:	8b 81       	ldd	r24, Y+3	; 0x03
     724:	81 70       	andi	r24, 0x01	; 1
     726:	81 70       	andi	r24, 0x01	; 1
     728:	98 2f       	mov	r25, r24
     72a:	99 0f       	add	r25, r25
     72c:	99 0f       	add	r25, r25
     72e:	99 0f       	add	r25, r25
     730:	83 85       	ldd	r24, Z+11	; 0x0b
     732:	87 7f       	andi	r24, 0xF7	; 247
     734:	89 2b       	or	r24, r25
     736:	83 87       	std	Z+11, r24	; 0x0b
     738:	19 c2       	rjmp	.+1074   	; 0xb6c <__stack+0x30d>
						break;
				case PIN_4 :
						DIO->PORTA.Bit.B4 = Copy_Value;
     73a:	e0 e3       	ldi	r30, 0x30	; 48
     73c:	f0 e0       	ldi	r31, 0x00	; 0
     73e:	8b 81       	ldd	r24, Y+3	; 0x03
     740:	81 70       	andi	r24, 0x01	; 1
     742:	81 70       	andi	r24, 0x01	; 1
     744:	98 2f       	mov	r25, r24
     746:	92 95       	swap	r25
     748:	90 7f       	andi	r25, 0xF0	; 240
     74a:	83 85       	ldd	r24, Z+11	; 0x0b
     74c:	8f 7e       	andi	r24, 0xEF	; 239
     74e:	89 2b       	or	r24, r25
     750:	83 87       	std	Z+11, r24	; 0x0b
     752:	0c c2       	rjmp	.+1048   	; 0xb6c <__stack+0x30d>
						break;
				case PIN_5 :
						DIO->PORTA.Bit.B5 = Copy_Value;
     754:	e0 e3       	ldi	r30, 0x30	; 48
     756:	f0 e0       	ldi	r31, 0x00	; 0
     758:	8b 81       	ldd	r24, Y+3	; 0x03
     75a:	81 70       	andi	r24, 0x01	; 1
     75c:	81 70       	andi	r24, 0x01	; 1
     75e:	98 2f       	mov	r25, r24
     760:	92 95       	swap	r25
     762:	99 0f       	add	r25, r25
     764:	90 7e       	andi	r25, 0xE0	; 224
     766:	83 85       	ldd	r24, Z+11	; 0x0b
     768:	8f 7d       	andi	r24, 0xDF	; 223
     76a:	89 2b       	or	r24, r25
     76c:	83 87       	std	Z+11, r24	; 0x0b
     76e:	fe c1       	rjmp	.+1020   	; 0xb6c <__stack+0x30d>
						break;
				case PIN_6 :
						DIO->PORTA.Bit.B6 = Copy_Value;
     770:	e0 e3       	ldi	r30, 0x30	; 48
     772:	f0 e0       	ldi	r31, 0x00	; 0
     774:	8b 81       	ldd	r24, Y+3	; 0x03
     776:	81 70       	andi	r24, 0x01	; 1
     778:	81 70       	andi	r24, 0x01	; 1
     77a:	98 2f       	mov	r25, r24
     77c:	92 95       	swap	r25
     77e:	99 0f       	add	r25, r25
     780:	99 0f       	add	r25, r25
     782:	90 7c       	andi	r25, 0xC0	; 192
     784:	83 85       	ldd	r24, Z+11	; 0x0b
     786:	8f 7b       	andi	r24, 0xBF	; 191
     788:	89 2b       	or	r24, r25
     78a:	83 87       	std	Z+11, r24	; 0x0b
     78c:	ef c1       	rjmp	.+990    	; 0xb6c <__stack+0x30d>
						break;
				case PIN_7 :
						DIO->PORTA.Bit.B7 = Copy_Value;
     78e:	e0 e3       	ldi	r30, 0x30	; 48
     790:	f0 e0       	ldi	r31, 0x00	; 0
     792:	8b 81       	ldd	r24, Y+3	; 0x03
     794:	81 70       	andi	r24, 0x01	; 1
     796:	98 2f       	mov	r25, r24
     798:	97 95       	ror	r25
     79a:	99 27       	eor	r25, r25
     79c:	97 95       	ror	r25
     79e:	83 85       	ldd	r24, Z+11	; 0x0b
     7a0:	8f 77       	andi	r24, 0x7F	; 127
     7a2:	89 2b       	or	r24, r25
     7a4:	83 87       	std	Z+11, r24	; 0x0b
     7a6:	e2 c1       	rjmp	.+964    	; 0xb6c <__stack+0x30d>
				default: break;
			}
			break;

		case PORT_B:
			switch(Copy_PinId)
     7a8:	8a 81       	ldd	r24, Y+2	; 0x02
     7aa:	28 2f       	mov	r18, r24
     7ac:	30 e0       	ldi	r19, 0x00	; 0
     7ae:	39 87       	std	Y+9, r19	; 0x09
     7b0:	28 87       	std	Y+8, r18	; 0x08
     7b2:	88 85       	ldd	r24, Y+8	; 0x08
     7b4:	99 85       	ldd	r25, Y+9	; 0x09
     7b6:	83 30       	cpi	r24, 0x03	; 3
     7b8:	91 05       	cpc	r25, r1
     7ba:	09 f4       	brne	.+2      	; 0x7be <DIO_voidSetPinValue+0x1b6>
     7bc:	51 c0       	rjmp	.+162    	; 0x860 <__stack+0x1>
     7be:	28 85       	ldd	r18, Y+8	; 0x08
     7c0:	39 85       	ldd	r19, Y+9	; 0x09
     7c2:	24 30       	cpi	r18, 0x04	; 4
     7c4:	31 05       	cpc	r19, r1
     7c6:	7c f4       	brge	.+30     	; 0x7e6 <DIO_voidSetPinValue+0x1de>
     7c8:	88 85       	ldd	r24, Y+8	; 0x08
     7ca:	99 85       	ldd	r25, Y+9	; 0x09
     7cc:	81 30       	cpi	r24, 0x01	; 1
     7ce:	91 05       	cpc	r25, r1
     7d0:	71 f1       	breq	.+92     	; 0x82e <DIO_voidSetPinValue+0x226>
     7d2:	28 85       	ldd	r18, Y+8	; 0x08
     7d4:	39 85       	ldd	r19, Y+9	; 0x09
     7d6:	22 30       	cpi	r18, 0x02	; 2
     7d8:	31 05       	cpc	r19, r1
     7da:	ac f5       	brge	.+106    	; 0x846 <DIO_voidSetPinValue+0x23e>
     7dc:	88 85       	ldd	r24, Y+8	; 0x08
     7de:	99 85       	ldd	r25, Y+9	; 0x09
     7e0:	00 97       	sbiw	r24, 0x00	; 0
     7e2:	d1 f0       	breq	.+52     	; 0x818 <DIO_voidSetPinValue+0x210>
     7e4:	c3 c1       	rjmp	.+902    	; 0xb6c <__stack+0x30d>
     7e6:	28 85       	ldd	r18, Y+8	; 0x08
     7e8:	39 85       	ldd	r19, Y+9	; 0x09
     7ea:	25 30       	cpi	r18, 0x05	; 5
     7ec:	31 05       	cpc	r19, r1
     7ee:	09 f4       	brne	.+2      	; 0x7f2 <DIO_voidSetPinValue+0x1ea>
     7f0:	52 c0       	rjmp	.+164    	; 0x896 <__stack+0x37>
     7f2:	88 85       	ldd	r24, Y+8	; 0x08
     7f4:	99 85       	ldd	r25, Y+9	; 0x09
     7f6:	85 30       	cpi	r24, 0x05	; 5
     7f8:	91 05       	cpc	r25, r1
     7fa:	0c f4       	brge	.+2      	; 0x7fe <DIO_voidSetPinValue+0x1f6>
     7fc:	3f c0       	rjmp	.+126    	; 0x87c <__stack+0x1d>
     7fe:	28 85       	ldd	r18, Y+8	; 0x08
     800:	39 85       	ldd	r19, Y+9	; 0x09
     802:	26 30       	cpi	r18, 0x06	; 6
     804:	31 05       	cpc	r19, r1
     806:	09 f4       	brne	.+2      	; 0x80a <DIO_voidSetPinValue+0x202>
     808:	54 c0       	rjmp	.+168    	; 0x8b2 <__stack+0x53>
     80a:	88 85       	ldd	r24, Y+8	; 0x08
     80c:	99 85       	ldd	r25, Y+9	; 0x09
     80e:	87 30       	cpi	r24, 0x07	; 7
     810:	91 05       	cpc	r25, r1
     812:	09 f4       	brne	.+2      	; 0x816 <DIO_voidSetPinValue+0x20e>
     814:	5d c0       	rjmp	.+186    	; 0x8d0 <__stack+0x71>
     816:	aa c1       	rjmp	.+852    	; 0xb6c <__stack+0x30d>
			{
				case PIN_0 :
						DIO->PORTB.Bit.B0 = Copy_Value;
     818:	e0 e3       	ldi	r30, 0x30	; 48
     81a:	f0 e0       	ldi	r31, 0x00	; 0
     81c:	8b 81       	ldd	r24, Y+3	; 0x03
     81e:	81 70       	andi	r24, 0x01	; 1
     820:	98 2f       	mov	r25, r24
     822:	91 70       	andi	r25, 0x01	; 1
     824:	80 85       	ldd	r24, Z+8	; 0x08
     826:	8e 7f       	andi	r24, 0xFE	; 254
     828:	89 2b       	or	r24, r25
     82a:	80 87       	std	Z+8, r24	; 0x08
     82c:	9f c1       	rjmp	.+830    	; 0xb6c <__stack+0x30d>
						break;
				case PIN_1 :
						DIO->PORTB.Bit.B1 = Copy_Value;
     82e:	e0 e3       	ldi	r30, 0x30	; 48
     830:	f0 e0       	ldi	r31, 0x00	; 0
     832:	8b 81       	ldd	r24, Y+3	; 0x03
     834:	81 70       	andi	r24, 0x01	; 1
     836:	81 70       	andi	r24, 0x01	; 1
     838:	98 2f       	mov	r25, r24
     83a:	99 0f       	add	r25, r25
     83c:	80 85       	ldd	r24, Z+8	; 0x08
     83e:	8d 7f       	andi	r24, 0xFD	; 253
     840:	89 2b       	or	r24, r25
     842:	80 87       	std	Z+8, r24	; 0x08
     844:	93 c1       	rjmp	.+806    	; 0xb6c <__stack+0x30d>
						break;
				case PIN_2 :
						DIO->PORTB.Bit.B2 = Copy_Value;
     846:	e0 e3       	ldi	r30, 0x30	; 48
     848:	f0 e0       	ldi	r31, 0x00	; 0
     84a:	8b 81       	ldd	r24, Y+3	; 0x03
     84c:	81 70       	andi	r24, 0x01	; 1
     84e:	81 70       	andi	r24, 0x01	; 1
     850:	98 2f       	mov	r25, r24
     852:	99 0f       	add	r25, r25
     854:	99 0f       	add	r25, r25
     856:	80 85       	ldd	r24, Z+8	; 0x08
     858:	8b 7f       	andi	r24, 0xFB	; 251
     85a:	89 2b       	or	r24, r25
     85c:	80 87       	std	Z+8, r24	; 0x08
     85e:	86 c1       	rjmp	.+780    	; 0xb6c <__stack+0x30d>
						break;
				case PIN_3 :
						DIO->PORTB.Bit.B3 = Copy_Value;
     860:	e0 e3       	ldi	r30, 0x30	; 48
     862:	f0 e0       	ldi	r31, 0x00	; 0
     864:	8b 81       	ldd	r24, Y+3	; 0x03
     866:	81 70       	andi	r24, 0x01	; 1
     868:	81 70       	andi	r24, 0x01	; 1
     86a:	98 2f       	mov	r25, r24
     86c:	99 0f       	add	r25, r25
     86e:	99 0f       	add	r25, r25
     870:	99 0f       	add	r25, r25
     872:	80 85       	ldd	r24, Z+8	; 0x08
     874:	87 7f       	andi	r24, 0xF7	; 247
     876:	89 2b       	or	r24, r25
     878:	80 87       	std	Z+8, r24	; 0x08
     87a:	78 c1       	rjmp	.+752    	; 0xb6c <__stack+0x30d>
						break;
				case PIN_4 :
						DIO->PORTB.Bit.B4 = Copy_Value;
     87c:	e0 e3       	ldi	r30, 0x30	; 48
     87e:	f0 e0       	ldi	r31, 0x00	; 0
     880:	8b 81       	ldd	r24, Y+3	; 0x03
     882:	81 70       	andi	r24, 0x01	; 1
     884:	81 70       	andi	r24, 0x01	; 1
     886:	98 2f       	mov	r25, r24
     888:	92 95       	swap	r25
     88a:	90 7f       	andi	r25, 0xF0	; 240
     88c:	80 85       	ldd	r24, Z+8	; 0x08
     88e:	8f 7e       	andi	r24, 0xEF	; 239
     890:	89 2b       	or	r24, r25
     892:	80 87       	std	Z+8, r24	; 0x08
     894:	6b c1       	rjmp	.+726    	; 0xb6c <__stack+0x30d>
						break;
				case PIN_5 :
						DIO->PORTB.Bit.B5 = Copy_Value;
     896:	e0 e3       	ldi	r30, 0x30	; 48
     898:	f0 e0       	ldi	r31, 0x00	; 0
     89a:	8b 81       	ldd	r24, Y+3	; 0x03
     89c:	81 70       	andi	r24, 0x01	; 1
     89e:	81 70       	andi	r24, 0x01	; 1
     8a0:	98 2f       	mov	r25, r24
     8a2:	92 95       	swap	r25
     8a4:	99 0f       	add	r25, r25
     8a6:	90 7e       	andi	r25, 0xE0	; 224
     8a8:	80 85       	ldd	r24, Z+8	; 0x08
     8aa:	8f 7d       	andi	r24, 0xDF	; 223
     8ac:	89 2b       	or	r24, r25
     8ae:	80 87       	std	Z+8, r24	; 0x08
     8b0:	5d c1       	rjmp	.+698    	; 0xb6c <__stack+0x30d>
						break;
				case PIN_6 :
						DIO->PORTB.Bit.B6 = Copy_Value;
     8b2:	e0 e3       	ldi	r30, 0x30	; 48
     8b4:	f0 e0       	ldi	r31, 0x00	; 0
     8b6:	8b 81       	ldd	r24, Y+3	; 0x03
     8b8:	81 70       	andi	r24, 0x01	; 1
     8ba:	81 70       	andi	r24, 0x01	; 1
     8bc:	98 2f       	mov	r25, r24
     8be:	92 95       	swap	r25
     8c0:	99 0f       	add	r25, r25
     8c2:	99 0f       	add	r25, r25
     8c4:	90 7c       	andi	r25, 0xC0	; 192
     8c6:	80 85       	ldd	r24, Z+8	; 0x08
     8c8:	8f 7b       	andi	r24, 0xBF	; 191
     8ca:	89 2b       	or	r24, r25
     8cc:	80 87       	std	Z+8, r24	; 0x08
     8ce:	4e c1       	rjmp	.+668    	; 0xb6c <__stack+0x30d>
						break;
				case PIN_7 :
						DIO->PORTB.Bit.B7 = Copy_Value;
     8d0:	e0 e3       	ldi	r30, 0x30	; 48
     8d2:	f0 e0       	ldi	r31, 0x00	; 0
     8d4:	8b 81       	ldd	r24, Y+3	; 0x03
     8d6:	81 70       	andi	r24, 0x01	; 1
     8d8:	98 2f       	mov	r25, r24
     8da:	97 95       	ror	r25
     8dc:	99 27       	eor	r25, r25
     8de:	97 95       	ror	r25
     8e0:	80 85       	ldd	r24, Z+8	; 0x08
     8e2:	8f 77       	andi	r24, 0x7F	; 127
     8e4:	89 2b       	or	r24, r25
     8e6:	80 87       	std	Z+8, r24	; 0x08
     8e8:	41 c1       	rjmp	.+642    	; 0xb6c <__stack+0x30d>
			}
			break;


		case PORT_C:
			switch(Copy_PinId)
     8ea:	8a 81       	ldd	r24, Y+2	; 0x02
     8ec:	28 2f       	mov	r18, r24
     8ee:	30 e0       	ldi	r19, 0x00	; 0
     8f0:	3f 83       	std	Y+7, r19	; 0x07
     8f2:	2e 83       	std	Y+6, r18	; 0x06
     8f4:	8e 81       	ldd	r24, Y+6	; 0x06
     8f6:	9f 81       	ldd	r25, Y+7	; 0x07
     8f8:	83 30       	cpi	r24, 0x03	; 3
     8fa:	91 05       	cpc	r25, r1
     8fc:	09 f4       	brne	.+2      	; 0x900 <__stack+0xa1>
     8fe:	51 c0       	rjmp	.+162    	; 0x9a2 <__stack+0x143>
     900:	2e 81       	ldd	r18, Y+6	; 0x06
     902:	3f 81       	ldd	r19, Y+7	; 0x07
     904:	24 30       	cpi	r18, 0x04	; 4
     906:	31 05       	cpc	r19, r1
     908:	7c f4       	brge	.+30     	; 0x928 <__stack+0xc9>
     90a:	8e 81       	ldd	r24, Y+6	; 0x06
     90c:	9f 81       	ldd	r25, Y+7	; 0x07
     90e:	81 30       	cpi	r24, 0x01	; 1
     910:	91 05       	cpc	r25, r1
     912:	71 f1       	breq	.+92     	; 0x970 <__stack+0x111>
     914:	2e 81       	ldd	r18, Y+6	; 0x06
     916:	3f 81       	ldd	r19, Y+7	; 0x07
     918:	22 30       	cpi	r18, 0x02	; 2
     91a:	31 05       	cpc	r19, r1
     91c:	ac f5       	brge	.+106    	; 0x988 <__stack+0x129>
     91e:	8e 81       	ldd	r24, Y+6	; 0x06
     920:	9f 81       	ldd	r25, Y+7	; 0x07
     922:	00 97       	sbiw	r24, 0x00	; 0
     924:	d1 f0       	breq	.+52     	; 0x95a <__stack+0xfb>
     926:	22 c1       	rjmp	.+580    	; 0xb6c <__stack+0x30d>
     928:	2e 81       	ldd	r18, Y+6	; 0x06
     92a:	3f 81       	ldd	r19, Y+7	; 0x07
     92c:	25 30       	cpi	r18, 0x05	; 5
     92e:	31 05       	cpc	r19, r1
     930:	09 f4       	brne	.+2      	; 0x934 <__stack+0xd5>
     932:	52 c0       	rjmp	.+164    	; 0x9d8 <__stack+0x179>
     934:	8e 81       	ldd	r24, Y+6	; 0x06
     936:	9f 81       	ldd	r25, Y+7	; 0x07
     938:	85 30       	cpi	r24, 0x05	; 5
     93a:	91 05       	cpc	r25, r1
     93c:	0c f4       	brge	.+2      	; 0x940 <__stack+0xe1>
     93e:	3f c0       	rjmp	.+126    	; 0x9be <__stack+0x15f>
     940:	2e 81       	ldd	r18, Y+6	; 0x06
     942:	3f 81       	ldd	r19, Y+7	; 0x07
     944:	26 30       	cpi	r18, 0x06	; 6
     946:	31 05       	cpc	r19, r1
     948:	09 f4       	brne	.+2      	; 0x94c <__stack+0xed>
     94a:	54 c0       	rjmp	.+168    	; 0x9f4 <__stack+0x195>
     94c:	8e 81       	ldd	r24, Y+6	; 0x06
     94e:	9f 81       	ldd	r25, Y+7	; 0x07
     950:	87 30       	cpi	r24, 0x07	; 7
     952:	91 05       	cpc	r25, r1
     954:	09 f4       	brne	.+2      	; 0x958 <__stack+0xf9>
     956:	5d c0       	rjmp	.+186    	; 0xa12 <__stack+0x1b3>
     958:	09 c1       	rjmp	.+530    	; 0xb6c <__stack+0x30d>
			{
				case PIN_0 :
						DIO->PORTC.Bit.B0 = Copy_Value;
     95a:	e0 e3       	ldi	r30, 0x30	; 48
     95c:	f0 e0       	ldi	r31, 0x00	; 0
     95e:	8b 81       	ldd	r24, Y+3	; 0x03
     960:	81 70       	andi	r24, 0x01	; 1
     962:	98 2f       	mov	r25, r24
     964:	91 70       	andi	r25, 0x01	; 1
     966:	85 81       	ldd	r24, Z+5	; 0x05
     968:	8e 7f       	andi	r24, 0xFE	; 254
     96a:	89 2b       	or	r24, r25
     96c:	85 83       	std	Z+5, r24	; 0x05
     96e:	fe c0       	rjmp	.+508    	; 0xb6c <__stack+0x30d>
						break;
				case PIN_1 :
						DIO->PORTC.Bit.B1 = Copy_Value;
     970:	e0 e3       	ldi	r30, 0x30	; 48
     972:	f0 e0       	ldi	r31, 0x00	; 0
     974:	8b 81       	ldd	r24, Y+3	; 0x03
     976:	81 70       	andi	r24, 0x01	; 1
     978:	81 70       	andi	r24, 0x01	; 1
     97a:	98 2f       	mov	r25, r24
     97c:	99 0f       	add	r25, r25
     97e:	85 81       	ldd	r24, Z+5	; 0x05
     980:	8d 7f       	andi	r24, 0xFD	; 253
     982:	89 2b       	or	r24, r25
     984:	85 83       	std	Z+5, r24	; 0x05
     986:	f2 c0       	rjmp	.+484    	; 0xb6c <__stack+0x30d>
						break;
				case PIN_2 :
						DIO->PORTC.Bit.B2 = Copy_Value;
     988:	e0 e3       	ldi	r30, 0x30	; 48
     98a:	f0 e0       	ldi	r31, 0x00	; 0
     98c:	8b 81       	ldd	r24, Y+3	; 0x03
     98e:	81 70       	andi	r24, 0x01	; 1
     990:	81 70       	andi	r24, 0x01	; 1
     992:	98 2f       	mov	r25, r24
     994:	99 0f       	add	r25, r25
     996:	99 0f       	add	r25, r25
     998:	85 81       	ldd	r24, Z+5	; 0x05
     99a:	8b 7f       	andi	r24, 0xFB	; 251
     99c:	89 2b       	or	r24, r25
     99e:	85 83       	std	Z+5, r24	; 0x05
     9a0:	e5 c0       	rjmp	.+458    	; 0xb6c <__stack+0x30d>
						break;
				case PIN_3 :
						DIO->PORTC.Bit.B3 = Copy_Value;
     9a2:	e0 e3       	ldi	r30, 0x30	; 48
     9a4:	f0 e0       	ldi	r31, 0x00	; 0
     9a6:	8b 81       	ldd	r24, Y+3	; 0x03
     9a8:	81 70       	andi	r24, 0x01	; 1
     9aa:	81 70       	andi	r24, 0x01	; 1
     9ac:	98 2f       	mov	r25, r24
     9ae:	99 0f       	add	r25, r25
     9b0:	99 0f       	add	r25, r25
     9b2:	99 0f       	add	r25, r25
     9b4:	85 81       	ldd	r24, Z+5	; 0x05
     9b6:	87 7f       	andi	r24, 0xF7	; 247
     9b8:	89 2b       	or	r24, r25
     9ba:	85 83       	std	Z+5, r24	; 0x05
     9bc:	d7 c0       	rjmp	.+430    	; 0xb6c <__stack+0x30d>
						break;
				case PIN_4 :
						DIO->PORTC.Bit.B4 = Copy_Value;
     9be:	e0 e3       	ldi	r30, 0x30	; 48
     9c0:	f0 e0       	ldi	r31, 0x00	; 0
     9c2:	8b 81       	ldd	r24, Y+3	; 0x03
     9c4:	81 70       	andi	r24, 0x01	; 1
     9c6:	81 70       	andi	r24, 0x01	; 1
     9c8:	98 2f       	mov	r25, r24
     9ca:	92 95       	swap	r25
     9cc:	90 7f       	andi	r25, 0xF0	; 240
     9ce:	85 81       	ldd	r24, Z+5	; 0x05
     9d0:	8f 7e       	andi	r24, 0xEF	; 239
     9d2:	89 2b       	or	r24, r25
     9d4:	85 83       	std	Z+5, r24	; 0x05
     9d6:	ca c0       	rjmp	.+404    	; 0xb6c <__stack+0x30d>
						break;
				case PIN_5 :
						DIO->PORTC.Bit.B5 = Copy_Value;
     9d8:	e0 e3       	ldi	r30, 0x30	; 48
     9da:	f0 e0       	ldi	r31, 0x00	; 0
     9dc:	8b 81       	ldd	r24, Y+3	; 0x03
     9de:	81 70       	andi	r24, 0x01	; 1
     9e0:	81 70       	andi	r24, 0x01	; 1
     9e2:	98 2f       	mov	r25, r24
     9e4:	92 95       	swap	r25
     9e6:	99 0f       	add	r25, r25
     9e8:	90 7e       	andi	r25, 0xE0	; 224
     9ea:	85 81       	ldd	r24, Z+5	; 0x05
     9ec:	8f 7d       	andi	r24, 0xDF	; 223
     9ee:	89 2b       	or	r24, r25
     9f0:	85 83       	std	Z+5, r24	; 0x05
     9f2:	bc c0       	rjmp	.+376    	; 0xb6c <__stack+0x30d>
						break;
				case PIN_6 :
						DIO->PORTC.Bit.B6 = Copy_Value;
     9f4:	e0 e3       	ldi	r30, 0x30	; 48
     9f6:	f0 e0       	ldi	r31, 0x00	; 0
     9f8:	8b 81       	ldd	r24, Y+3	; 0x03
     9fa:	81 70       	andi	r24, 0x01	; 1
     9fc:	81 70       	andi	r24, 0x01	; 1
     9fe:	98 2f       	mov	r25, r24
     a00:	92 95       	swap	r25
     a02:	99 0f       	add	r25, r25
     a04:	99 0f       	add	r25, r25
     a06:	90 7c       	andi	r25, 0xC0	; 192
     a08:	85 81       	ldd	r24, Z+5	; 0x05
     a0a:	8f 7b       	andi	r24, 0xBF	; 191
     a0c:	89 2b       	or	r24, r25
     a0e:	85 83       	std	Z+5, r24	; 0x05
     a10:	ad c0       	rjmp	.+346    	; 0xb6c <__stack+0x30d>
						break;
				case PIN_7 :
						DIO->PORTC.Bit.B7 = Copy_Value;
     a12:	e0 e3       	ldi	r30, 0x30	; 48
     a14:	f0 e0       	ldi	r31, 0x00	; 0
     a16:	8b 81       	ldd	r24, Y+3	; 0x03
     a18:	81 70       	andi	r24, 0x01	; 1
     a1a:	98 2f       	mov	r25, r24
     a1c:	97 95       	ror	r25
     a1e:	99 27       	eor	r25, r25
     a20:	97 95       	ror	r25
     a22:	85 81       	ldd	r24, Z+5	; 0x05
     a24:	8f 77       	andi	r24, 0x7F	; 127
     a26:	89 2b       	or	r24, r25
     a28:	85 83       	std	Z+5, r24	; 0x05
     a2a:	a0 c0       	rjmp	.+320    	; 0xb6c <__stack+0x30d>
				default: break;
			}
			break;

		case PORT_D:
			switch(Copy_PinId)
     a2c:	8a 81       	ldd	r24, Y+2	; 0x02
     a2e:	28 2f       	mov	r18, r24
     a30:	30 e0       	ldi	r19, 0x00	; 0
     a32:	3d 83       	std	Y+5, r19	; 0x05
     a34:	2c 83       	std	Y+4, r18	; 0x04
     a36:	8c 81       	ldd	r24, Y+4	; 0x04
     a38:	9d 81       	ldd	r25, Y+5	; 0x05
     a3a:	83 30       	cpi	r24, 0x03	; 3
     a3c:	91 05       	cpc	r25, r1
     a3e:	09 f4       	brne	.+2      	; 0xa42 <__stack+0x1e3>
     a40:	51 c0       	rjmp	.+162    	; 0xae4 <__stack+0x285>
     a42:	2c 81       	ldd	r18, Y+4	; 0x04
     a44:	3d 81       	ldd	r19, Y+5	; 0x05
     a46:	24 30       	cpi	r18, 0x04	; 4
     a48:	31 05       	cpc	r19, r1
     a4a:	7c f4       	brge	.+30     	; 0xa6a <__stack+0x20b>
     a4c:	8c 81       	ldd	r24, Y+4	; 0x04
     a4e:	9d 81       	ldd	r25, Y+5	; 0x05
     a50:	81 30       	cpi	r24, 0x01	; 1
     a52:	91 05       	cpc	r25, r1
     a54:	71 f1       	breq	.+92     	; 0xab2 <__stack+0x253>
     a56:	2c 81       	ldd	r18, Y+4	; 0x04
     a58:	3d 81       	ldd	r19, Y+5	; 0x05
     a5a:	22 30       	cpi	r18, 0x02	; 2
     a5c:	31 05       	cpc	r19, r1
     a5e:	ac f5       	brge	.+106    	; 0xaca <__stack+0x26b>
     a60:	8c 81       	ldd	r24, Y+4	; 0x04
     a62:	9d 81       	ldd	r25, Y+5	; 0x05
     a64:	00 97       	sbiw	r24, 0x00	; 0
     a66:	d1 f0       	breq	.+52     	; 0xa9c <__stack+0x23d>
     a68:	81 c0       	rjmp	.+258    	; 0xb6c <__stack+0x30d>
     a6a:	2c 81       	ldd	r18, Y+4	; 0x04
     a6c:	3d 81       	ldd	r19, Y+5	; 0x05
     a6e:	25 30       	cpi	r18, 0x05	; 5
     a70:	31 05       	cpc	r19, r1
     a72:	09 f4       	brne	.+2      	; 0xa76 <__stack+0x217>
     a74:	52 c0       	rjmp	.+164    	; 0xb1a <__stack+0x2bb>
     a76:	8c 81       	ldd	r24, Y+4	; 0x04
     a78:	9d 81       	ldd	r25, Y+5	; 0x05
     a7a:	85 30       	cpi	r24, 0x05	; 5
     a7c:	91 05       	cpc	r25, r1
     a7e:	0c f4       	brge	.+2      	; 0xa82 <__stack+0x223>
     a80:	3f c0       	rjmp	.+126    	; 0xb00 <__stack+0x2a1>
     a82:	2c 81       	ldd	r18, Y+4	; 0x04
     a84:	3d 81       	ldd	r19, Y+5	; 0x05
     a86:	26 30       	cpi	r18, 0x06	; 6
     a88:	31 05       	cpc	r19, r1
     a8a:	09 f4       	brne	.+2      	; 0xa8e <__stack+0x22f>
     a8c:	54 c0       	rjmp	.+168    	; 0xb36 <__stack+0x2d7>
     a8e:	8c 81       	ldd	r24, Y+4	; 0x04
     a90:	9d 81       	ldd	r25, Y+5	; 0x05
     a92:	87 30       	cpi	r24, 0x07	; 7
     a94:	91 05       	cpc	r25, r1
     a96:	09 f4       	brne	.+2      	; 0xa9a <__stack+0x23b>
     a98:	5d c0       	rjmp	.+186    	; 0xb54 <__stack+0x2f5>
     a9a:	68 c0       	rjmp	.+208    	; 0xb6c <__stack+0x30d>
			{
				case PIN_0 :
						DIO->PORTD.Bit.B0 = Copy_Value;
     a9c:	e0 e3       	ldi	r30, 0x30	; 48
     a9e:	f0 e0       	ldi	r31, 0x00	; 0
     aa0:	8b 81       	ldd	r24, Y+3	; 0x03
     aa2:	81 70       	andi	r24, 0x01	; 1
     aa4:	98 2f       	mov	r25, r24
     aa6:	91 70       	andi	r25, 0x01	; 1
     aa8:	82 81       	ldd	r24, Z+2	; 0x02
     aaa:	8e 7f       	andi	r24, 0xFE	; 254
     aac:	89 2b       	or	r24, r25
     aae:	82 83       	std	Z+2, r24	; 0x02
     ab0:	5d c0       	rjmp	.+186    	; 0xb6c <__stack+0x30d>
						break;
				case PIN_1 :
						DIO->PORTD.Bit.B1 = Copy_Value;
     ab2:	e0 e3       	ldi	r30, 0x30	; 48
     ab4:	f0 e0       	ldi	r31, 0x00	; 0
     ab6:	8b 81       	ldd	r24, Y+3	; 0x03
     ab8:	81 70       	andi	r24, 0x01	; 1
     aba:	81 70       	andi	r24, 0x01	; 1
     abc:	98 2f       	mov	r25, r24
     abe:	99 0f       	add	r25, r25
     ac0:	82 81       	ldd	r24, Z+2	; 0x02
     ac2:	8d 7f       	andi	r24, 0xFD	; 253
     ac4:	89 2b       	or	r24, r25
     ac6:	82 83       	std	Z+2, r24	; 0x02
     ac8:	51 c0       	rjmp	.+162    	; 0xb6c <__stack+0x30d>
						break;
				case PIN_2 :
						DIO->PORTD.Bit.B2 = Copy_Value;
     aca:	e0 e3       	ldi	r30, 0x30	; 48
     acc:	f0 e0       	ldi	r31, 0x00	; 0
     ace:	8b 81       	ldd	r24, Y+3	; 0x03
     ad0:	81 70       	andi	r24, 0x01	; 1
     ad2:	81 70       	andi	r24, 0x01	; 1
     ad4:	98 2f       	mov	r25, r24
     ad6:	99 0f       	add	r25, r25
     ad8:	99 0f       	add	r25, r25
     ada:	82 81       	ldd	r24, Z+2	; 0x02
     adc:	8b 7f       	andi	r24, 0xFB	; 251
     ade:	89 2b       	or	r24, r25
     ae0:	82 83       	std	Z+2, r24	; 0x02
     ae2:	44 c0       	rjmp	.+136    	; 0xb6c <__stack+0x30d>
						break;
				case PIN_3 :
						DIO->PORTD.Bit.B3 = Copy_Value;
     ae4:	e0 e3       	ldi	r30, 0x30	; 48
     ae6:	f0 e0       	ldi	r31, 0x00	; 0
     ae8:	8b 81       	ldd	r24, Y+3	; 0x03
     aea:	81 70       	andi	r24, 0x01	; 1
     aec:	81 70       	andi	r24, 0x01	; 1
     aee:	98 2f       	mov	r25, r24
     af0:	99 0f       	add	r25, r25
     af2:	99 0f       	add	r25, r25
     af4:	99 0f       	add	r25, r25
     af6:	82 81       	ldd	r24, Z+2	; 0x02
     af8:	87 7f       	andi	r24, 0xF7	; 247
     afa:	89 2b       	or	r24, r25
     afc:	82 83       	std	Z+2, r24	; 0x02
     afe:	36 c0       	rjmp	.+108    	; 0xb6c <__stack+0x30d>
						break;
				case PIN_4 :
						DIO->PORTD.Bit.B4 = Copy_Value;
     b00:	e0 e3       	ldi	r30, 0x30	; 48
     b02:	f0 e0       	ldi	r31, 0x00	; 0
     b04:	8b 81       	ldd	r24, Y+3	; 0x03
     b06:	81 70       	andi	r24, 0x01	; 1
     b08:	81 70       	andi	r24, 0x01	; 1
     b0a:	98 2f       	mov	r25, r24
     b0c:	92 95       	swap	r25
     b0e:	90 7f       	andi	r25, 0xF0	; 240
     b10:	82 81       	ldd	r24, Z+2	; 0x02
     b12:	8f 7e       	andi	r24, 0xEF	; 239
     b14:	89 2b       	or	r24, r25
     b16:	82 83       	std	Z+2, r24	; 0x02
     b18:	29 c0       	rjmp	.+82     	; 0xb6c <__stack+0x30d>
						break;
				case PIN_5 :
						DIO->PORTD.Bit.B5 = Copy_Value;
     b1a:	e0 e3       	ldi	r30, 0x30	; 48
     b1c:	f0 e0       	ldi	r31, 0x00	; 0
     b1e:	8b 81       	ldd	r24, Y+3	; 0x03
     b20:	81 70       	andi	r24, 0x01	; 1
     b22:	81 70       	andi	r24, 0x01	; 1
     b24:	98 2f       	mov	r25, r24
     b26:	92 95       	swap	r25
     b28:	99 0f       	add	r25, r25
     b2a:	90 7e       	andi	r25, 0xE0	; 224
     b2c:	82 81       	ldd	r24, Z+2	; 0x02
     b2e:	8f 7d       	andi	r24, 0xDF	; 223
     b30:	89 2b       	or	r24, r25
     b32:	82 83       	std	Z+2, r24	; 0x02
     b34:	1b c0       	rjmp	.+54     	; 0xb6c <__stack+0x30d>
						break;
				case PIN_6 :
						DIO->PORTD.Bit.B6 = Copy_Value;
     b36:	e0 e3       	ldi	r30, 0x30	; 48
     b38:	f0 e0       	ldi	r31, 0x00	; 0
     b3a:	8b 81       	ldd	r24, Y+3	; 0x03
     b3c:	81 70       	andi	r24, 0x01	; 1
     b3e:	81 70       	andi	r24, 0x01	; 1
     b40:	98 2f       	mov	r25, r24
     b42:	92 95       	swap	r25
     b44:	99 0f       	add	r25, r25
     b46:	99 0f       	add	r25, r25
     b48:	90 7c       	andi	r25, 0xC0	; 192
     b4a:	82 81       	ldd	r24, Z+2	; 0x02
     b4c:	8f 7b       	andi	r24, 0xBF	; 191
     b4e:	89 2b       	or	r24, r25
     b50:	82 83       	std	Z+2, r24	; 0x02
     b52:	0c c0       	rjmp	.+24     	; 0xb6c <__stack+0x30d>
						break;
				case PIN_7 :
						DIO->PORTD.Bit.B7 = Copy_Value;
     b54:	e0 e3       	ldi	r30, 0x30	; 48
     b56:	f0 e0       	ldi	r31, 0x00	; 0
     b58:	8b 81       	ldd	r24, Y+3	; 0x03
     b5a:	81 70       	andi	r24, 0x01	; 1
     b5c:	98 2f       	mov	r25, r24
     b5e:	97 95       	ror	r25
     b60:	99 27       	eor	r25, r25
     b62:	97 95       	ror	r25
     b64:	82 81       	ldd	r24, Z+2	; 0x02
     b66:	8f 77       	andi	r24, 0x7F	; 127
     b68:	89 2b       	or	r24, r25
     b6a:	82 83       	std	Z+2, r24	; 0x02
						break;
				default: break;
			}
			break;
	}
}
     b6c:	2d 96       	adiw	r28, 0x0d	; 13
     b6e:	0f b6       	in	r0, 0x3f	; 63
     b70:	f8 94       	cli
     b72:	de bf       	out	0x3e, r29	; 62
     b74:	0f be       	out	0x3f, r0	; 63
     b76:	cd bf       	out	0x3d, r28	; 61
     b78:	cf 91       	pop	r28
     b7a:	df 91       	pop	r29
     b7c:	08 95       	ret

00000b7e <DIO_voidGetPinValue>:

u8 DIO_voidGetPinValue(PORT_t Copy_PortId,PIN_t Copy_PinId)
{
     b7e:	df 93       	push	r29
     b80:	cf 93       	push	r28
     b82:	cd b7       	in	r28, 0x3d	; 61
     b84:	de b7       	in	r29, 0x3e	; 62
     b86:	2d 97       	sbiw	r28, 0x0d	; 13
     b88:	0f b6       	in	r0, 0x3f	; 63
     b8a:	f8 94       	cli
     b8c:	de bf       	out	0x3e, r29	; 62
     b8e:	0f be       	out	0x3f, r0	; 63
     b90:	cd bf       	out	0x3d, r28	; 61
     b92:	8a 83       	std	Y+2, r24	; 0x02
     b94:	6b 83       	std	Y+3, r22	; 0x03
	u8 Local_u8Pin;
	switch(Copy_PortId)
     b96:	8a 81       	ldd	r24, Y+2	; 0x02
     b98:	28 2f       	mov	r18, r24
     b9a:	30 e0       	ldi	r19, 0x00	; 0
     b9c:	3d 87       	std	Y+13, r19	; 0x0d
     b9e:	2c 87       	std	Y+12, r18	; 0x0c
     ba0:	8c 85       	ldd	r24, Y+12	; 0x0c
     ba2:	9d 85       	ldd	r25, Y+13	; 0x0d
     ba4:	81 30       	cpi	r24, 0x01	; 1
     ba6:	91 05       	cpc	r25, r1
     ba8:	09 f4       	brne	.+2      	; 0xbac <DIO_voidGetPinValue+0x2e>
     baa:	8c c0       	rjmp	.+280    	; 0xcc4 <DIO_voidGetPinValue+0x146>
     bac:	2c 85       	ldd	r18, Y+12	; 0x0c
     bae:	3d 85       	ldd	r19, Y+13	; 0x0d
     bb0:	22 30       	cpi	r18, 0x02	; 2
     bb2:	31 05       	cpc	r19, r1
     bb4:	2c f4       	brge	.+10     	; 0xbc0 <DIO_voidGetPinValue+0x42>
     bb6:	8c 85       	ldd	r24, Y+12	; 0x0c
     bb8:	9d 85       	ldd	r25, Y+13	; 0x0d
     bba:	00 97       	sbiw	r24, 0x00	; 0
     bbc:	71 f0       	breq	.+28     	; 0xbda <DIO_voidGetPinValue+0x5c>
     bbe:	e0 c1       	rjmp	.+960    	; 0xf80 <DIO_voidGetPinValue+0x402>
     bc0:	2c 85       	ldd	r18, Y+12	; 0x0c
     bc2:	3d 85       	ldd	r19, Y+13	; 0x0d
     bc4:	22 30       	cpi	r18, 0x02	; 2
     bc6:	31 05       	cpc	r19, r1
     bc8:	09 f4       	brne	.+2      	; 0xbcc <DIO_voidGetPinValue+0x4e>
     bca:	f1 c0       	rjmp	.+482    	; 0xdae <DIO_voidGetPinValue+0x230>
     bcc:	8c 85       	ldd	r24, Y+12	; 0x0c
     bce:	9d 85       	ldd	r25, Y+13	; 0x0d
     bd0:	83 30       	cpi	r24, 0x03	; 3
     bd2:	91 05       	cpc	r25, r1
     bd4:	09 f4       	brne	.+2      	; 0xbd8 <DIO_voidGetPinValue+0x5a>
     bd6:	60 c1       	rjmp	.+704    	; 0xe98 <DIO_voidGetPinValue+0x31a>
     bd8:	d3 c1       	rjmp	.+934    	; 0xf80 <DIO_voidGetPinValue+0x402>
	{
		case PORT_A:
			switch(Copy_PinId)
     bda:	8b 81       	ldd	r24, Y+3	; 0x03
     bdc:	28 2f       	mov	r18, r24
     bde:	30 e0       	ldi	r19, 0x00	; 0
     be0:	3b 87       	std	Y+11, r19	; 0x0b
     be2:	2a 87       	std	Y+10, r18	; 0x0a
     be4:	8a 85       	ldd	r24, Y+10	; 0x0a
     be6:	9b 85       	ldd	r25, Y+11	; 0x0b
     be8:	83 30       	cpi	r24, 0x03	; 3
     bea:	91 05       	cpc	r25, r1
     bec:	09 f4       	brne	.+2      	; 0xbf0 <DIO_voidGetPinValue+0x72>
     bee:	3e c0       	rjmp	.+124    	; 0xc6c <DIO_voidGetPinValue+0xee>
     bf0:	2a 85       	ldd	r18, Y+10	; 0x0a
     bf2:	3b 85       	ldd	r19, Y+11	; 0x0b
     bf4:	24 30       	cpi	r18, 0x04	; 4
     bf6:	31 05       	cpc	r19, r1
     bf8:	7c f4       	brge	.+30     	; 0xc18 <DIO_voidGetPinValue+0x9a>
     bfa:	8a 85       	ldd	r24, Y+10	; 0x0a
     bfc:	9b 85       	ldd	r25, Y+11	; 0x0b
     bfe:	81 30       	cpi	r24, 0x01	; 1
     c00:	91 05       	cpc	r25, r1
     c02:	29 f1       	breq	.+74     	; 0xc4e <DIO_voidGetPinValue+0xd0>
     c04:	2a 85       	ldd	r18, Y+10	; 0x0a
     c06:	3b 85       	ldd	r19, Y+11	; 0x0b
     c08:	22 30       	cpi	r18, 0x02	; 2
     c0a:	31 05       	cpc	r19, r1
     c0c:	3c f5       	brge	.+78     	; 0xc5c <DIO_voidGetPinValue+0xde>
     c0e:	8a 85       	ldd	r24, Y+10	; 0x0a
     c10:	9b 85       	ldd	r25, Y+11	; 0x0b
     c12:	00 97       	sbiw	r24, 0x00	; 0
     c14:	b1 f0       	breq	.+44     	; 0xc42 <DIO_voidGetPinValue+0xc4>
     c16:	b4 c1       	rjmp	.+872    	; 0xf80 <DIO_voidGetPinValue+0x402>
     c18:	2a 85       	ldd	r18, Y+10	; 0x0a
     c1a:	3b 85       	ldd	r19, Y+11	; 0x0b
     c1c:	25 30       	cpi	r18, 0x05	; 5
     c1e:	31 05       	cpc	r19, r1
     c20:	b1 f1       	breq	.+108    	; 0xc8e <DIO_voidGetPinValue+0x110>
     c22:	8a 85       	ldd	r24, Y+10	; 0x0a
     c24:	9b 85       	ldd	r25, Y+11	; 0x0b
     c26:	85 30       	cpi	r24, 0x05	; 5
     c28:	91 05       	cpc	r25, r1
     c2a:	4c f1       	brlt	.+82     	; 0xc7e <DIO_voidGetPinValue+0x100>
     c2c:	2a 85       	ldd	r18, Y+10	; 0x0a
     c2e:	3b 85       	ldd	r19, Y+11	; 0x0b
     c30:	26 30       	cpi	r18, 0x06	; 6
     c32:	31 05       	cpc	r19, r1
     c34:	a9 f1       	breq	.+106    	; 0xca0 <DIO_voidGetPinValue+0x122>
     c36:	8a 85       	ldd	r24, Y+10	; 0x0a
     c38:	9b 85       	ldd	r25, Y+11	; 0x0b
     c3a:	87 30       	cpi	r24, 0x07	; 7
     c3c:	91 05       	cpc	r25, r1
     c3e:	d1 f1       	breq	.+116    	; 0xcb4 <DIO_voidGetPinValue+0x136>
     c40:	9f c1       	rjmp	.+830    	; 0xf80 <DIO_voidGetPinValue+0x402>
			{
				case PIN_0 :
						Local_u8Pin = DIO->PINA.Bit.B0;
     c42:	e0 e3       	ldi	r30, 0x30	; 48
     c44:	f0 e0       	ldi	r31, 0x00	; 0
     c46:	81 85       	ldd	r24, Z+9	; 0x09
     c48:	81 70       	andi	r24, 0x01	; 1
     c4a:	89 83       	std	Y+1, r24	; 0x01
     c4c:	99 c1       	rjmp	.+818    	; 0xf80 <DIO_voidGetPinValue+0x402>
						break;
				case PIN_1 :
						Local_u8Pin = DIO->PINA.Bit.B1;
     c4e:	e0 e3       	ldi	r30, 0x30	; 48
     c50:	f0 e0       	ldi	r31, 0x00	; 0
     c52:	81 85       	ldd	r24, Z+9	; 0x09
     c54:	86 95       	lsr	r24
     c56:	81 70       	andi	r24, 0x01	; 1
     c58:	89 83       	std	Y+1, r24	; 0x01
     c5a:	92 c1       	rjmp	.+804    	; 0xf80 <DIO_voidGetPinValue+0x402>
						break;
				case PIN_2 :
						Local_u8Pin = DIO->PINA.Bit.B2;
     c5c:	e0 e3       	ldi	r30, 0x30	; 48
     c5e:	f0 e0       	ldi	r31, 0x00	; 0
     c60:	81 85       	ldd	r24, Z+9	; 0x09
     c62:	86 95       	lsr	r24
     c64:	86 95       	lsr	r24
     c66:	81 70       	andi	r24, 0x01	; 1
     c68:	89 83       	std	Y+1, r24	; 0x01
     c6a:	8a c1       	rjmp	.+788    	; 0xf80 <DIO_voidGetPinValue+0x402>
						break;
				case PIN_3 :
						Local_u8Pin = DIO->PINA.Bit.B3;
     c6c:	e0 e3       	ldi	r30, 0x30	; 48
     c6e:	f0 e0       	ldi	r31, 0x00	; 0
     c70:	81 85       	ldd	r24, Z+9	; 0x09
     c72:	86 95       	lsr	r24
     c74:	86 95       	lsr	r24
     c76:	86 95       	lsr	r24
     c78:	81 70       	andi	r24, 0x01	; 1
     c7a:	89 83       	std	Y+1, r24	; 0x01
     c7c:	81 c1       	rjmp	.+770    	; 0xf80 <DIO_voidGetPinValue+0x402>
						break;
				case PIN_4 :
						Local_u8Pin = DIO->PINA.Bit.B4;
     c7e:	e0 e3       	ldi	r30, 0x30	; 48
     c80:	f0 e0       	ldi	r31, 0x00	; 0
     c82:	81 85       	ldd	r24, Z+9	; 0x09
     c84:	82 95       	swap	r24
     c86:	8f 70       	andi	r24, 0x0F	; 15
     c88:	81 70       	andi	r24, 0x01	; 1
     c8a:	89 83       	std	Y+1, r24	; 0x01
     c8c:	79 c1       	rjmp	.+754    	; 0xf80 <DIO_voidGetPinValue+0x402>
						break;
				case PIN_5 :
						Local_u8Pin = DIO->PINA.Bit.B5;
     c8e:	e0 e3       	ldi	r30, 0x30	; 48
     c90:	f0 e0       	ldi	r31, 0x00	; 0
     c92:	81 85       	ldd	r24, Z+9	; 0x09
     c94:	82 95       	swap	r24
     c96:	86 95       	lsr	r24
     c98:	87 70       	andi	r24, 0x07	; 7
     c9a:	81 70       	andi	r24, 0x01	; 1
     c9c:	89 83       	std	Y+1, r24	; 0x01
     c9e:	70 c1       	rjmp	.+736    	; 0xf80 <DIO_voidGetPinValue+0x402>
						break;
				case PIN_6 :
						Local_u8Pin = DIO->PINA.Bit.B6;
     ca0:	e0 e3       	ldi	r30, 0x30	; 48
     ca2:	f0 e0       	ldi	r31, 0x00	; 0
     ca4:	81 85       	ldd	r24, Z+9	; 0x09
     ca6:	82 95       	swap	r24
     ca8:	86 95       	lsr	r24
     caa:	86 95       	lsr	r24
     cac:	83 70       	andi	r24, 0x03	; 3
     cae:	81 70       	andi	r24, 0x01	; 1
     cb0:	89 83       	std	Y+1, r24	; 0x01
     cb2:	66 c1       	rjmp	.+716    	; 0xf80 <DIO_voidGetPinValue+0x402>
						break;
				case PIN_7 :
						Local_u8Pin = DIO->PINA.Bit.B7;
     cb4:	e0 e3       	ldi	r30, 0x30	; 48
     cb6:	f0 e0       	ldi	r31, 0x00	; 0
     cb8:	81 85       	ldd	r24, Z+9	; 0x09
     cba:	88 1f       	adc	r24, r24
     cbc:	88 27       	eor	r24, r24
     cbe:	88 1f       	adc	r24, r24
     cc0:	89 83       	std	Y+1, r24	; 0x01
     cc2:	5e c1       	rjmp	.+700    	; 0xf80 <DIO_voidGetPinValue+0x402>
				default: break;
			}
			break;

		case PORT_B:
			switch(Copy_PinId)
     cc4:	8b 81       	ldd	r24, Y+3	; 0x03
     cc6:	28 2f       	mov	r18, r24
     cc8:	30 e0       	ldi	r19, 0x00	; 0
     cca:	39 87       	std	Y+9, r19	; 0x09
     ccc:	28 87       	std	Y+8, r18	; 0x08
     cce:	88 85       	ldd	r24, Y+8	; 0x08
     cd0:	99 85       	ldd	r25, Y+9	; 0x09
     cd2:	83 30       	cpi	r24, 0x03	; 3
     cd4:	91 05       	cpc	r25, r1
     cd6:	09 f4       	brne	.+2      	; 0xcda <DIO_voidGetPinValue+0x15c>
     cd8:	3e c0       	rjmp	.+124    	; 0xd56 <DIO_voidGetPinValue+0x1d8>
     cda:	28 85       	ldd	r18, Y+8	; 0x08
     cdc:	39 85       	ldd	r19, Y+9	; 0x09
     cde:	24 30       	cpi	r18, 0x04	; 4
     ce0:	31 05       	cpc	r19, r1
     ce2:	7c f4       	brge	.+30     	; 0xd02 <DIO_voidGetPinValue+0x184>
     ce4:	88 85       	ldd	r24, Y+8	; 0x08
     ce6:	99 85       	ldd	r25, Y+9	; 0x09
     ce8:	81 30       	cpi	r24, 0x01	; 1
     cea:	91 05       	cpc	r25, r1
     cec:	29 f1       	breq	.+74     	; 0xd38 <DIO_voidGetPinValue+0x1ba>
     cee:	28 85       	ldd	r18, Y+8	; 0x08
     cf0:	39 85       	ldd	r19, Y+9	; 0x09
     cf2:	22 30       	cpi	r18, 0x02	; 2
     cf4:	31 05       	cpc	r19, r1
     cf6:	3c f5       	brge	.+78     	; 0xd46 <DIO_voidGetPinValue+0x1c8>
     cf8:	88 85       	ldd	r24, Y+8	; 0x08
     cfa:	99 85       	ldd	r25, Y+9	; 0x09
     cfc:	00 97       	sbiw	r24, 0x00	; 0
     cfe:	b1 f0       	breq	.+44     	; 0xd2c <DIO_voidGetPinValue+0x1ae>
     d00:	3f c1       	rjmp	.+638    	; 0xf80 <DIO_voidGetPinValue+0x402>
     d02:	28 85       	ldd	r18, Y+8	; 0x08
     d04:	39 85       	ldd	r19, Y+9	; 0x09
     d06:	25 30       	cpi	r18, 0x05	; 5
     d08:	31 05       	cpc	r19, r1
     d0a:	b1 f1       	breq	.+108    	; 0xd78 <DIO_voidGetPinValue+0x1fa>
     d0c:	88 85       	ldd	r24, Y+8	; 0x08
     d0e:	99 85       	ldd	r25, Y+9	; 0x09
     d10:	85 30       	cpi	r24, 0x05	; 5
     d12:	91 05       	cpc	r25, r1
     d14:	4c f1       	brlt	.+82     	; 0xd68 <DIO_voidGetPinValue+0x1ea>
     d16:	28 85       	ldd	r18, Y+8	; 0x08
     d18:	39 85       	ldd	r19, Y+9	; 0x09
     d1a:	26 30       	cpi	r18, 0x06	; 6
     d1c:	31 05       	cpc	r19, r1
     d1e:	a9 f1       	breq	.+106    	; 0xd8a <DIO_voidGetPinValue+0x20c>
     d20:	88 85       	ldd	r24, Y+8	; 0x08
     d22:	99 85       	ldd	r25, Y+9	; 0x09
     d24:	87 30       	cpi	r24, 0x07	; 7
     d26:	91 05       	cpc	r25, r1
     d28:	d1 f1       	breq	.+116    	; 0xd9e <DIO_voidGetPinValue+0x220>
     d2a:	2a c1       	rjmp	.+596    	; 0xf80 <DIO_voidGetPinValue+0x402>
			{
				case PIN_0 :
						Local_u8Pin = DIO->PINB.Bit.B0;
     d2c:	e0 e3       	ldi	r30, 0x30	; 48
     d2e:	f0 e0       	ldi	r31, 0x00	; 0
     d30:	86 81       	ldd	r24, Z+6	; 0x06
     d32:	81 70       	andi	r24, 0x01	; 1
     d34:	89 83       	std	Y+1, r24	; 0x01
     d36:	24 c1       	rjmp	.+584    	; 0xf80 <DIO_voidGetPinValue+0x402>
						break;
				case PIN_1 :
						Local_u8Pin = DIO->PINB.Bit.B1;
     d38:	e0 e3       	ldi	r30, 0x30	; 48
     d3a:	f0 e0       	ldi	r31, 0x00	; 0
     d3c:	86 81       	ldd	r24, Z+6	; 0x06
     d3e:	86 95       	lsr	r24
     d40:	81 70       	andi	r24, 0x01	; 1
     d42:	89 83       	std	Y+1, r24	; 0x01
     d44:	1d c1       	rjmp	.+570    	; 0xf80 <DIO_voidGetPinValue+0x402>
						break;
				case PIN_2 :
						Local_u8Pin = DIO->PINB.Bit.B2;
     d46:	e0 e3       	ldi	r30, 0x30	; 48
     d48:	f0 e0       	ldi	r31, 0x00	; 0
     d4a:	86 81       	ldd	r24, Z+6	; 0x06
     d4c:	86 95       	lsr	r24
     d4e:	86 95       	lsr	r24
     d50:	81 70       	andi	r24, 0x01	; 1
     d52:	89 83       	std	Y+1, r24	; 0x01
     d54:	15 c1       	rjmp	.+554    	; 0xf80 <DIO_voidGetPinValue+0x402>
						break;
				case PIN_3 :
						Local_u8Pin = DIO->PINB.Bit.B3;
     d56:	e0 e3       	ldi	r30, 0x30	; 48
     d58:	f0 e0       	ldi	r31, 0x00	; 0
     d5a:	86 81       	ldd	r24, Z+6	; 0x06
     d5c:	86 95       	lsr	r24
     d5e:	86 95       	lsr	r24
     d60:	86 95       	lsr	r24
     d62:	81 70       	andi	r24, 0x01	; 1
     d64:	89 83       	std	Y+1, r24	; 0x01
     d66:	0c c1       	rjmp	.+536    	; 0xf80 <DIO_voidGetPinValue+0x402>
						break;
				case PIN_4 :
						Local_u8Pin = DIO->PINB.Bit.B4;
     d68:	e0 e3       	ldi	r30, 0x30	; 48
     d6a:	f0 e0       	ldi	r31, 0x00	; 0
     d6c:	86 81       	ldd	r24, Z+6	; 0x06
     d6e:	82 95       	swap	r24
     d70:	8f 70       	andi	r24, 0x0F	; 15
     d72:	81 70       	andi	r24, 0x01	; 1
     d74:	89 83       	std	Y+1, r24	; 0x01
     d76:	04 c1       	rjmp	.+520    	; 0xf80 <DIO_voidGetPinValue+0x402>
						break;
				case PIN_5 :
						Local_u8Pin = DIO->PINB.Bit.B5;
     d78:	e0 e3       	ldi	r30, 0x30	; 48
     d7a:	f0 e0       	ldi	r31, 0x00	; 0
     d7c:	86 81       	ldd	r24, Z+6	; 0x06
     d7e:	82 95       	swap	r24
     d80:	86 95       	lsr	r24
     d82:	87 70       	andi	r24, 0x07	; 7
     d84:	81 70       	andi	r24, 0x01	; 1
     d86:	89 83       	std	Y+1, r24	; 0x01
     d88:	fb c0       	rjmp	.+502    	; 0xf80 <DIO_voidGetPinValue+0x402>
						break;
				case PIN_6 :
						Local_u8Pin = DIO->PINB.Bit.B6;
     d8a:	e0 e3       	ldi	r30, 0x30	; 48
     d8c:	f0 e0       	ldi	r31, 0x00	; 0
     d8e:	86 81       	ldd	r24, Z+6	; 0x06
     d90:	82 95       	swap	r24
     d92:	86 95       	lsr	r24
     d94:	86 95       	lsr	r24
     d96:	83 70       	andi	r24, 0x03	; 3
     d98:	81 70       	andi	r24, 0x01	; 1
     d9a:	89 83       	std	Y+1, r24	; 0x01
     d9c:	f1 c0       	rjmp	.+482    	; 0xf80 <DIO_voidGetPinValue+0x402>
						break;
				case PIN_7 :
						Local_u8Pin = DIO->PINB.Bit.B7;
     d9e:	e0 e3       	ldi	r30, 0x30	; 48
     da0:	f0 e0       	ldi	r31, 0x00	; 0
     da2:	86 81       	ldd	r24, Z+6	; 0x06
     da4:	88 1f       	adc	r24, r24
     da6:	88 27       	eor	r24, r24
     da8:	88 1f       	adc	r24, r24
     daa:	89 83       	std	Y+1, r24	; 0x01
     dac:	e9 c0       	rjmp	.+466    	; 0xf80 <DIO_voidGetPinValue+0x402>
			}
			break;


		case PORT_C:
			switch(Copy_PinId)
     dae:	8b 81       	ldd	r24, Y+3	; 0x03
     db0:	28 2f       	mov	r18, r24
     db2:	30 e0       	ldi	r19, 0x00	; 0
     db4:	3f 83       	std	Y+7, r19	; 0x07
     db6:	2e 83       	std	Y+6, r18	; 0x06
     db8:	8e 81       	ldd	r24, Y+6	; 0x06
     dba:	9f 81       	ldd	r25, Y+7	; 0x07
     dbc:	83 30       	cpi	r24, 0x03	; 3
     dbe:	91 05       	cpc	r25, r1
     dc0:	09 f4       	brne	.+2      	; 0xdc4 <DIO_voidGetPinValue+0x246>
     dc2:	3e c0       	rjmp	.+124    	; 0xe40 <DIO_voidGetPinValue+0x2c2>
     dc4:	2e 81       	ldd	r18, Y+6	; 0x06
     dc6:	3f 81       	ldd	r19, Y+7	; 0x07
     dc8:	24 30       	cpi	r18, 0x04	; 4
     dca:	31 05       	cpc	r19, r1
     dcc:	7c f4       	brge	.+30     	; 0xdec <DIO_voidGetPinValue+0x26e>
     dce:	8e 81       	ldd	r24, Y+6	; 0x06
     dd0:	9f 81       	ldd	r25, Y+7	; 0x07
     dd2:	81 30       	cpi	r24, 0x01	; 1
     dd4:	91 05       	cpc	r25, r1
     dd6:	29 f1       	breq	.+74     	; 0xe22 <DIO_voidGetPinValue+0x2a4>
     dd8:	2e 81       	ldd	r18, Y+6	; 0x06
     dda:	3f 81       	ldd	r19, Y+7	; 0x07
     ddc:	22 30       	cpi	r18, 0x02	; 2
     dde:	31 05       	cpc	r19, r1
     de0:	3c f5       	brge	.+78     	; 0xe30 <DIO_voidGetPinValue+0x2b2>
     de2:	8e 81       	ldd	r24, Y+6	; 0x06
     de4:	9f 81       	ldd	r25, Y+7	; 0x07
     de6:	00 97       	sbiw	r24, 0x00	; 0
     de8:	b1 f0       	breq	.+44     	; 0xe16 <DIO_voidGetPinValue+0x298>
     dea:	ca c0       	rjmp	.+404    	; 0xf80 <DIO_voidGetPinValue+0x402>
     dec:	2e 81       	ldd	r18, Y+6	; 0x06
     dee:	3f 81       	ldd	r19, Y+7	; 0x07
     df0:	25 30       	cpi	r18, 0x05	; 5
     df2:	31 05       	cpc	r19, r1
     df4:	b1 f1       	breq	.+108    	; 0xe62 <DIO_voidGetPinValue+0x2e4>
     df6:	8e 81       	ldd	r24, Y+6	; 0x06
     df8:	9f 81       	ldd	r25, Y+7	; 0x07
     dfa:	85 30       	cpi	r24, 0x05	; 5
     dfc:	91 05       	cpc	r25, r1
     dfe:	4c f1       	brlt	.+82     	; 0xe52 <DIO_voidGetPinValue+0x2d4>
     e00:	2e 81       	ldd	r18, Y+6	; 0x06
     e02:	3f 81       	ldd	r19, Y+7	; 0x07
     e04:	26 30       	cpi	r18, 0x06	; 6
     e06:	31 05       	cpc	r19, r1
     e08:	a9 f1       	breq	.+106    	; 0xe74 <DIO_voidGetPinValue+0x2f6>
     e0a:	8e 81       	ldd	r24, Y+6	; 0x06
     e0c:	9f 81       	ldd	r25, Y+7	; 0x07
     e0e:	87 30       	cpi	r24, 0x07	; 7
     e10:	91 05       	cpc	r25, r1
     e12:	d1 f1       	breq	.+116    	; 0xe88 <DIO_voidGetPinValue+0x30a>
     e14:	b5 c0       	rjmp	.+362    	; 0xf80 <DIO_voidGetPinValue+0x402>
			{
				case PIN_0 :
						Local_u8Pin = DIO->PINC.Bit.B0;
     e16:	e0 e3       	ldi	r30, 0x30	; 48
     e18:	f0 e0       	ldi	r31, 0x00	; 0
     e1a:	83 81       	ldd	r24, Z+3	; 0x03
     e1c:	81 70       	andi	r24, 0x01	; 1
     e1e:	89 83       	std	Y+1, r24	; 0x01
     e20:	af c0       	rjmp	.+350    	; 0xf80 <DIO_voidGetPinValue+0x402>
						break;
				case PIN_1 :
						Local_u8Pin = DIO->PINC.Bit.B1;
     e22:	e0 e3       	ldi	r30, 0x30	; 48
     e24:	f0 e0       	ldi	r31, 0x00	; 0
     e26:	83 81       	ldd	r24, Z+3	; 0x03
     e28:	86 95       	lsr	r24
     e2a:	81 70       	andi	r24, 0x01	; 1
     e2c:	89 83       	std	Y+1, r24	; 0x01
     e2e:	a8 c0       	rjmp	.+336    	; 0xf80 <DIO_voidGetPinValue+0x402>
						break;
				case PIN_2 :
						Local_u8Pin = DIO->PINC.Bit.B2;
     e30:	e0 e3       	ldi	r30, 0x30	; 48
     e32:	f0 e0       	ldi	r31, 0x00	; 0
     e34:	83 81       	ldd	r24, Z+3	; 0x03
     e36:	86 95       	lsr	r24
     e38:	86 95       	lsr	r24
     e3a:	81 70       	andi	r24, 0x01	; 1
     e3c:	89 83       	std	Y+1, r24	; 0x01
     e3e:	a0 c0       	rjmp	.+320    	; 0xf80 <DIO_voidGetPinValue+0x402>
						break;
				case PIN_3 :
						Local_u8Pin = DIO->PINC.Bit.B3;
     e40:	e0 e3       	ldi	r30, 0x30	; 48
     e42:	f0 e0       	ldi	r31, 0x00	; 0
     e44:	83 81       	ldd	r24, Z+3	; 0x03
     e46:	86 95       	lsr	r24
     e48:	86 95       	lsr	r24
     e4a:	86 95       	lsr	r24
     e4c:	81 70       	andi	r24, 0x01	; 1
     e4e:	89 83       	std	Y+1, r24	; 0x01
     e50:	97 c0       	rjmp	.+302    	; 0xf80 <DIO_voidGetPinValue+0x402>
						break;
				case PIN_4 :
						Local_u8Pin = DIO->PINC.Bit.B4;
     e52:	e0 e3       	ldi	r30, 0x30	; 48
     e54:	f0 e0       	ldi	r31, 0x00	; 0
     e56:	83 81       	ldd	r24, Z+3	; 0x03
     e58:	82 95       	swap	r24
     e5a:	8f 70       	andi	r24, 0x0F	; 15
     e5c:	81 70       	andi	r24, 0x01	; 1
     e5e:	89 83       	std	Y+1, r24	; 0x01
     e60:	8f c0       	rjmp	.+286    	; 0xf80 <DIO_voidGetPinValue+0x402>
						break;
				case PIN_5 :
						Local_u8Pin = DIO->PINC.Bit.B5;
     e62:	e0 e3       	ldi	r30, 0x30	; 48
     e64:	f0 e0       	ldi	r31, 0x00	; 0
     e66:	83 81       	ldd	r24, Z+3	; 0x03
     e68:	82 95       	swap	r24
     e6a:	86 95       	lsr	r24
     e6c:	87 70       	andi	r24, 0x07	; 7
     e6e:	81 70       	andi	r24, 0x01	; 1
     e70:	89 83       	std	Y+1, r24	; 0x01
     e72:	86 c0       	rjmp	.+268    	; 0xf80 <DIO_voidGetPinValue+0x402>
						break;
				case PIN_6 :
						Local_u8Pin = DIO->PINC.Bit.B6;
     e74:	e0 e3       	ldi	r30, 0x30	; 48
     e76:	f0 e0       	ldi	r31, 0x00	; 0
     e78:	83 81       	ldd	r24, Z+3	; 0x03
     e7a:	82 95       	swap	r24
     e7c:	86 95       	lsr	r24
     e7e:	86 95       	lsr	r24
     e80:	83 70       	andi	r24, 0x03	; 3
     e82:	81 70       	andi	r24, 0x01	; 1
     e84:	89 83       	std	Y+1, r24	; 0x01
     e86:	7c c0       	rjmp	.+248    	; 0xf80 <DIO_voidGetPinValue+0x402>
						break;
				case PIN_7 :
						Local_u8Pin = DIO->PINC.Bit.B7;
     e88:	e0 e3       	ldi	r30, 0x30	; 48
     e8a:	f0 e0       	ldi	r31, 0x00	; 0
     e8c:	83 81       	ldd	r24, Z+3	; 0x03
     e8e:	88 1f       	adc	r24, r24
     e90:	88 27       	eor	r24, r24
     e92:	88 1f       	adc	r24, r24
     e94:	89 83       	std	Y+1, r24	; 0x01
     e96:	74 c0       	rjmp	.+232    	; 0xf80 <DIO_voidGetPinValue+0x402>
				default: break;
			}
			break;

		case PORT_D:
			switch(Copy_PinId)
     e98:	8b 81       	ldd	r24, Y+3	; 0x03
     e9a:	28 2f       	mov	r18, r24
     e9c:	30 e0       	ldi	r19, 0x00	; 0
     e9e:	3d 83       	std	Y+5, r19	; 0x05
     ea0:	2c 83       	std	Y+4, r18	; 0x04
     ea2:	8c 81       	ldd	r24, Y+4	; 0x04
     ea4:	9d 81       	ldd	r25, Y+5	; 0x05
     ea6:	83 30       	cpi	r24, 0x03	; 3
     ea8:	91 05       	cpc	r25, r1
     eaa:	09 f4       	brne	.+2      	; 0xeae <DIO_voidGetPinValue+0x330>
     eac:	3e c0       	rjmp	.+124    	; 0xf2a <DIO_voidGetPinValue+0x3ac>
     eae:	2c 81       	ldd	r18, Y+4	; 0x04
     eb0:	3d 81       	ldd	r19, Y+5	; 0x05
     eb2:	24 30       	cpi	r18, 0x04	; 4
     eb4:	31 05       	cpc	r19, r1
     eb6:	7c f4       	brge	.+30     	; 0xed6 <DIO_voidGetPinValue+0x358>
     eb8:	8c 81       	ldd	r24, Y+4	; 0x04
     eba:	9d 81       	ldd	r25, Y+5	; 0x05
     ebc:	81 30       	cpi	r24, 0x01	; 1
     ebe:	91 05       	cpc	r25, r1
     ec0:	29 f1       	breq	.+74     	; 0xf0c <DIO_voidGetPinValue+0x38e>
     ec2:	2c 81       	ldd	r18, Y+4	; 0x04
     ec4:	3d 81       	ldd	r19, Y+5	; 0x05
     ec6:	22 30       	cpi	r18, 0x02	; 2
     ec8:	31 05       	cpc	r19, r1
     eca:	3c f5       	brge	.+78     	; 0xf1a <DIO_voidGetPinValue+0x39c>
     ecc:	8c 81       	ldd	r24, Y+4	; 0x04
     ece:	9d 81       	ldd	r25, Y+5	; 0x05
     ed0:	00 97       	sbiw	r24, 0x00	; 0
     ed2:	b1 f0       	breq	.+44     	; 0xf00 <DIO_voidGetPinValue+0x382>
     ed4:	55 c0       	rjmp	.+170    	; 0xf80 <DIO_voidGetPinValue+0x402>
     ed6:	2c 81       	ldd	r18, Y+4	; 0x04
     ed8:	3d 81       	ldd	r19, Y+5	; 0x05
     eda:	25 30       	cpi	r18, 0x05	; 5
     edc:	31 05       	cpc	r19, r1
     ede:	b1 f1       	breq	.+108    	; 0xf4c <DIO_voidGetPinValue+0x3ce>
     ee0:	8c 81       	ldd	r24, Y+4	; 0x04
     ee2:	9d 81       	ldd	r25, Y+5	; 0x05
     ee4:	85 30       	cpi	r24, 0x05	; 5
     ee6:	91 05       	cpc	r25, r1
     ee8:	4c f1       	brlt	.+82     	; 0xf3c <DIO_voidGetPinValue+0x3be>
     eea:	2c 81       	ldd	r18, Y+4	; 0x04
     eec:	3d 81       	ldd	r19, Y+5	; 0x05
     eee:	26 30       	cpi	r18, 0x06	; 6
     ef0:	31 05       	cpc	r19, r1
     ef2:	a9 f1       	breq	.+106    	; 0xf5e <DIO_voidGetPinValue+0x3e0>
     ef4:	8c 81       	ldd	r24, Y+4	; 0x04
     ef6:	9d 81       	ldd	r25, Y+5	; 0x05
     ef8:	87 30       	cpi	r24, 0x07	; 7
     efa:	91 05       	cpc	r25, r1
     efc:	d1 f1       	breq	.+116    	; 0xf72 <DIO_voidGetPinValue+0x3f4>
     efe:	40 c0       	rjmp	.+128    	; 0xf80 <DIO_voidGetPinValue+0x402>
			{
				case PIN_0 :
						Local_u8Pin = DIO->PIND.Bit.B0;
     f00:	e0 e3       	ldi	r30, 0x30	; 48
     f02:	f0 e0       	ldi	r31, 0x00	; 0
     f04:	80 81       	ld	r24, Z
     f06:	81 70       	andi	r24, 0x01	; 1
     f08:	89 83       	std	Y+1, r24	; 0x01
     f0a:	3a c0       	rjmp	.+116    	; 0xf80 <DIO_voidGetPinValue+0x402>
						break;
				case PIN_1 :
						Local_u8Pin = DIO->PIND.Bit.B1;
     f0c:	e0 e3       	ldi	r30, 0x30	; 48
     f0e:	f0 e0       	ldi	r31, 0x00	; 0
     f10:	80 81       	ld	r24, Z
     f12:	86 95       	lsr	r24
     f14:	81 70       	andi	r24, 0x01	; 1
     f16:	89 83       	std	Y+1, r24	; 0x01
     f18:	33 c0       	rjmp	.+102    	; 0xf80 <DIO_voidGetPinValue+0x402>
						break;
				case PIN_2 :
						Local_u8Pin = DIO->PIND.Bit.B2;
     f1a:	e0 e3       	ldi	r30, 0x30	; 48
     f1c:	f0 e0       	ldi	r31, 0x00	; 0
     f1e:	80 81       	ld	r24, Z
     f20:	86 95       	lsr	r24
     f22:	86 95       	lsr	r24
     f24:	81 70       	andi	r24, 0x01	; 1
     f26:	89 83       	std	Y+1, r24	; 0x01
     f28:	2b c0       	rjmp	.+86     	; 0xf80 <DIO_voidGetPinValue+0x402>
						break;
				case PIN_3 :
						Local_u8Pin = DIO->PIND.Bit.B3;
     f2a:	e0 e3       	ldi	r30, 0x30	; 48
     f2c:	f0 e0       	ldi	r31, 0x00	; 0
     f2e:	80 81       	ld	r24, Z
     f30:	86 95       	lsr	r24
     f32:	86 95       	lsr	r24
     f34:	86 95       	lsr	r24
     f36:	81 70       	andi	r24, 0x01	; 1
     f38:	89 83       	std	Y+1, r24	; 0x01
     f3a:	22 c0       	rjmp	.+68     	; 0xf80 <DIO_voidGetPinValue+0x402>
						break;
				case PIN_4 :
						Local_u8Pin = DIO->PIND.Bit.B4;
     f3c:	e0 e3       	ldi	r30, 0x30	; 48
     f3e:	f0 e0       	ldi	r31, 0x00	; 0
     f40:	80 81       	ld	r24, Z
     f42:	82 95       	swap	r24
     f44:	8f 70       	andi	r24, 0x0F	; 15
     f46:	81 70       	andi	r24, 0x01	; 1
     f48:	89 83       	std	Y+1, r24	; 0x01
     f4a:	1a c0       	rjmp	.+52     	; 0xf80 <DIO_voidGetPinValue+0x402>
						break;
				case PIN_5 :
						Local_u8Pin = DIO->PIND.Bit.B5;
     f4c:	e0 e3       	ldi	r30, 0x30	; 48
     f4e:	f0 e0       	ldi	r31, 0x00	; 0
     f50:	80 81       	ld	r24, Z
     f52:	82 95       	swap	r24
     f54:	86 95       	lsr	r24
     f56:	87 70       	andi	r24, 0x07	; 7
     f58:	81 70       	andi	r24, 0x01	; 1
     f5a:	89 83       	std	Y+1, r24	; 0x01
     f5c:	11 c0       	rjmp	.+34     	; 0xf80 <DIO_voidGetPinValue+0x402>
						break;
				case PIN_6 :
						Local_u8Pin = DIO->PIND.Bit.B6;
     f5e:	e0 e3       	ldi	r30, 0x30	; 48
     f60:	f0 e0       	ldi	r31, 0x00	; 0
     f62:	80 81       	ld	r24, Z
     f64:	82 95       	swap	r24
     f66:	86 95       	lsr	r24
     f68:	86 95       	lsr	r24
     f6a:	83 70       	andi	r24, 0x03	; 3
     f6c:	81 70       	andi	r24, 0x01	; 1
     f6e:	89 83       	std	Y+1, r24	; 0x01
     f70:	07 c0       	rjmp	.+14     	; 0xf80 <DIO_voidGetPinValue+0x402>
						break;
				case PIN_7 :
						Local_u8Pin = DIO->PIND.Bit.B7;
     f72:	e0 e3       	ldi	r30, 0x30	; 48
     f74:	f0 e0       	ldi	r31, 0x00	; 0
     f76:	80 81       	ld	r24, Z
     f78:	88 1f       	adc	r24, r24
     f7a:	88 27       	eor	r24, r24
     f7c:	88 1f       	adc	r24, r24
     f7e:	89 83       	std	Y+1, r24	; 0x01
						break;
				default: break;
			}
			break;
	}
	return Local_u8Pin;
     f80:	89 81       	ldd	r24, Y+1	; 0x01
}
     f82:	2d 96       	adiw	r28, 0x0d	; 13
     f84:	0f b6       	in	r0, 0x3f	; 63
     f86:	f8 94       	cli
     f88:	de bf       	out	0x3e, r29	; 62
     f8a:	0f be       	out	0x3f, r0	; 63
     f8c:	cd bf       	out	0x3d, r28	; 61
     f8e:	cf 91       	pop	r28
     f90:	df 91       	pop	r29
     f92:	08 95       	ret

00000f94 <DIO_voidSetPortirection>:

void DIO_voidSetPortirection(PORT_t Copy_PortId,DIRECTION_t Copy_Direction)
{
     f94:	df 93       	push	r29
     f96:	cf 93       	push	r28
     f98:	00 d0       	rcall	.+0      	; 0xf9a <DIO_voidSetPortirection+0x6>
     f9a:	00 d0       	rcall	.+0      	; 0xf9c <DIO_voidSetPortirection+0x8>
     f9c:	cd b7       	in	r28, 0x3d	; 61
     f9e:	de b7       	in	r29, 0x3e	; 62
     fa0:	89 83       	std	Y+1, r24	; 0x01
     fa2:	6a 83       	std	Y+2, r22	; 0x02
	switch(Copy_PortId)
     fa4:	89 81       	ldd	r24, Y+1	; 0x01
     fa6:	28 2f       	mov	r18, r24
     fa8:	30 e0       	ldi	r19, 0x00	; 0
     faa:	3c 83       	std	Y+4, r19	; 0x04
     fac:	2b 83       	std	Y+3, r18	; 0x03
     fae:	8b 81       	ldd	r24, Y+3	; 0x03
     fb0:	9c 81       	ldd	r25, Y+4	; 0x04
     fb2:	81 30       	cpi	r24, 0x01	; 1
     fb4:	91 05       	cpc	r25, r1
     fb6:	21 f1       	breq	.+72     	; 0x1000 <DIO_voidSetPortirection+0x6c>
     fb8:	2b 81       	ldd	r18, Y+3	; 0x03
     fba:	3c 81       	ldd	r19, Y+4	; 0x04
     fbc:	22 30       	cpi	r18, 0x02	; 2
     fbe:	31 05       	cpc	r19, r1
     fc0:	2c f4       	brge	.+10     	; 0xfcc <DIO_voidSetPortirection+0x38>
     fc2:	8b 81       	ldd	r24, Y+3	; 0x03
     fc4:	9c 81       	ldd	r25, Y+4	; 0x04
     fc6:	00 97       	sbiw	r24, 0x00	; 0
     fc8:	61 f0       	breq	.+24     	; 0xfe2 <DIO_voidSetPortirection+0x4e>
     fca:	46 c0       	rjmp	.+140    	; 0x1058 <DIO_voidSetPortirection+0xc4>
     fcc:	2b 81       	ldd	r18, Y+3	; 0x03
     fce:	3c 81       	ldd	r19, Y+4	; 0x04
     fd0:	22 30       	cpi	r18, 0x02	; 2
     fd2:	31 05       	cpc	r19, r1
     fd4:	21 f1       	breq	.+72     	; 0x101e <DIO_voidSetPortirection+0x8a>
     fd6:	8b 81       	ldd	r24, Y+3	; 0x03
     fd8:	9c 81       	ldd	r25, Y+4	; 0x04
     fda:	83 30       	cpi	r24, 0x03	; 3
     fdc:	91 05       	cpc	r25, r1
     fde:	71 f1       	breq	.+92     	; 0x103c <DIO_voidSetPortirection+0xa8>
     fe0:	3b c0       	rjmp	.+118    	; 0x1058 <DIO_voidSetPortirection+0xc4>
		{
			case PORT_A:
				if(Copy_Direction == INPUT)
     fe2:	8a 81       	ldd	r24, Y+2	; 0x02
     fe4:	88 23       	and	r24, r24
     fe6:	21 f4       	brne	.+8      	; 0xff0 <DIO_voidSetPortirection+0x5c>
				{
					DIO->DDRA.All_Bits = 0;
     fe8:	e0 e3       	ldi	r30, 0x30	; 48
     fea:	f0 e0       	ldi	r31, 0x00	; 0
     fec:	12 86       	std	Z+10, r1	; 0x0a
     fee:	34 c0       	rjmp	.+104    	; 0x1058 <DIO_voidSetPortirection+0xc4>
				}
				else if(Copy_Direction == OUTPUT)
     ff0:	8a 81       	ldd	r24, Y+2	; 0x02
     ff2:	81 30       	cpi	r24, 0x01	; 1
     ff4:	89 f5       	brne	.+98     	; 0x1058 <DIO_voidSetPortirection+0xc4>
				{
					DIO->DDRA.All_Bits = 0xFF;
     ff6:	e0 e3       	ldi	r30, 0x30	; 48
     ff8:	f0 e0       	ldi	r31, 0x00	; 0
     ffa:	8f ef       	ldi	r24, 0xFF	; 255
     ffc:	82 87       	std	Z+10, r24	; 0x0a
     ffe:	2c c0       	rjmp	.+88     	; 0x1058 <DIO_voidSetPortirection+0xc4>

				}
				break;

			case PORT_B:
				if(Copy_Direction == INPUT)
    1000:	8a 81       	ldd	r24, Y+2	; 0x02
    1002:	88 23       	and	r24, r24
    1004:	21 f4       	brne	.+8      	; 0x100e <DIO_voidSetPortirection+0x7a>
				{
					DIO->DDRB.All_Bits = 0;
    1006:	e0 e3       	ldi	r30, 0x30	; 48
    1008:	f0 e0       	ldi	r31, 0x00	; 0
    100a:	17 82       	std	Z+7, r1	; 0x07
    100c:	25 c0       	rjmp	.+74     	; 0x1058 <DIO_voidSetPortirection+0xc4>
				}
				else if(Copy_Direction == OUTPUT)
    100e:	8a 81       	ldd	r24, Y+2	; 0x02
    1010:	81 30       	cpi	r24, 0x01	; 1
    1012:	11 f5       	brne	.+68     	; 0x1058 <DIO_voidSetPortirection+0xc4>
				{
					DIO->DDRB.All_Bits = 0xFF;
    1014:	e0 e3       	ldi	r30, 0x30	; 48
    1016:	f0 e0       	ldi	r31, 0x00	; 0
    1018:	8f ef       	ldi	r24, 0xFF	; 255
    101a:	87 83       	std	Z+7, r24	; 0x07
    101c:	1d c0       	rjmp	.+58     	; 0x1058 <DIO_voidSetPortirection+0xc4>
				}
				break;


			case PORT_C:
				if(Copy_Direction == INPUT)
    101e:	8a 81       	ldd	r24, Y+2	; 0x02
    1020:	88 23       	and	r24, r24
    1022:	21 f4       	brne	.+8      	; 0x102c <DIO_voidSetPortirection+0x98>
				{
					DIO->DDRC.All_Bits = 0;
    1024:	e0 e3       	ldi	r30, 0x30	; 48
    1026:	f0 e0       	ldi	r31, 0x00	; 0
    1028:	14 82       	std	Z+4, r1	; 0x04
    102a:	16 c0       	rjmp	.+44     	; 0x1058 <DIO_voidSetPortirection+0xc4>
				}
				else if(Copy_Direction == OUTPUT)
    102c:	8a 81       	ldd	r24, Y+2	; 0x02
    102e:	81 30       	cpi	r24, 0x01	; 1
    1030:	99 f4       	brne	.+38     	; 0x1058 <DIO_voidSetPortirection+0xc4>
				{
					DIO->DDRC.All_Bits = 0xFF;
    1032:	e0 e3       	ldi	r30, 0x30	; 48
    1034:	f0 e0       	ldi	r31, 0x00	; 0
    1036:	8f ef       	ldi	r24, 0xFF	; 255
    1038:	84 83       	std	Z+4, r24	; 0x04
    103a:	0e c0       	rjmp	.+28     	; 0x1058 <DIO_voidSetPortirection+0xc4>

				}
				break;

			case PORT_D:
				if(Copy_Direction == INPUT)
    103c:	8a 81       	ldd	r24, Y+2	; 0x02
    103e:	88 23       	and	r24, r24
    1040:	21 f4       	brne	.+8      	; 0x104a <DIO_voidSetPortirection+0xb6>
				{
					DIO->DDRD.All_Bits = 0;
    1042:	e0 e3       	ldi	r30, 0x30	; 48
    1044:	f0 e0       	ldi	r31, 0x00	; 0
    1046:	11 82       	std	Z+1, r1	; 0x01
    1048:	07 c0       	rjmp	.+14     	; 0x1058 <DIO_voidSetPortirection+0xc4>
				}
				else if(Copy_Direction == OUTPUT)
    104a:	8a 81       	ldd	r24, Y+2	; 0x02
    104c:	81 30       	cpi	r24, 0x01	; 1
    104e:	21 f4       	brne	.+8      	; 0x1058 <DIO_voidSetPortirection+0xc4>
				{
					DIO->DDRD.All_Bits = 0xFF;
    1050:	e0 e3       	ldi	r30, 0x30	; 48
    1052:	f0 e0       	ldi	r31, 0x00	; 0
    1054:	8f ef       	ldi	r24, 0xFF	; 255
    1056:	81 83       	std	Z+1, r24	; 0x01

				}
				break;
		}
}
    1058:	0f 90       	pop	r0
    105a:	0f 90       	pop	r0
    105c:	0f 90       	pop	r0
    105e:	0f 90       	pop	r0
    1060:	cf 91       	pop	r28
    1062:	df 91       	pop	r29
    1064:	08 95       	ret

00001066 <DIO_voidSetPortValue>:
void DIO_voidSetPortValue(PORT_t Copy_PortId,VALUE_t Copy_Value)
{
    1066:	df 93       	push	r29
    1068:	cf 93       	push	r28
    106a:	00 d0       	rcall	.+0      	; 0x106c <DIO_voidSetPortValue+0x6>
    106c:	00 d0       	rcall	.+0      	; 0x106e <DIO_voidSetPortValue+0x8>
    106e:	cd b7       	in	r28, 0x3d	; 61
    1070:	de b7       	in	r29, 0x3e	; 62
    1072:	89 83       	std	Y+1, r24	; 0x01
    1074:	6a 83       	std	Y+2, r22	; 0x02
	switch(Copy_PortId)
    1076:	89 81       	ldd	r24, Y+1	; 0x01
    1078:	28 2f       	mov	r18, r24
    107a:	30 e0       	ldi	r19, 0x00	; 0
    107c:	3c 83       	std	Y+4, r19	; 0x04
    107e:	2b 83       	std	Y+3, r18	; 0x03
    1080:	8b 81       	ldd	r24, Y+3	; 0x03
    1082:	9c 81       	ldd	r25, Y+4	; 0x04
    1084:	81 30       	cpi	r24, 0x01	; 1
    1086:	91 05       	cpc	r25, r1
    1088:	21 f1       	breq	.+72     	; 0x10d2 <DIO_voidSetPortValue+0x6c>
    108a:	2b 81       	ldd	r18, Y+3	; 0x03
    108c:	3c 81       	ldd	r19, Y+4	; 0x04
    108e:	22 30       	cpi	r18, 0x02	; 2
    1090:	31 05       	cpc	r19, r1
    1092:	2c f4       	brge	.+10     	; 0x109e <DIO_voidSetPortValue+0x38>
    1094:	8b 81       	ldd	r24, Y+3	; 0x03
    1096:	9c 81       	ldd	r25, Y+4	; 0x04
    1098:	00 97       	sbiw	r24, 0x00	; 0
    109a:	61 f0       	breq	.+24     	; 0x10b4 <DIO_voidSetPortValue+0x4e>
    109c:	46 c0       	rjmp	.+140    	; 0x112a <DIO_voidSetPortValue+0xc4>
    109e:	2b 81       	ldd	r18, Y+3	; 0x03
    10a0:	3c 81       	ldd	r19, Y+4	; 0x04
    10a2:	22 30       	cpi	r18, 0x02	; 2
    10a4:	31 05       	cpc	r19, r1
    10a6:	21 f1       	breq	.+72     	; 0x10f0 <DIO_voidSetPortValue+0x8a>
    10a8:	8b 81       	ldd	r24, Y+3	; 0x03
    10aa:	9c 81       	ldd	r25, Y+4	; 0x04
    10ac:	83 30       	cpi	r24, 0x03	; 3
    10ae:	91 05       	cpc	r25, r1
    10b0:	71 f1       	breq	.+92     	; 0x110e <DIO_voidSetPortValue+0xa8>
    10b2:	3b c0       	rjmp	.+118    	; 0x112a <DIO_voidSetPortValue+0xc4>
		{
			case PORT_A:
				if(Copy_Value == HIGH)
    10b4:	8a 81       	ldd	r24, Y+2	; 0x02
    10b6:	81 30       	cpi	r24, 0x01	; 1
    10b8:	29 f4       	brne	.+10     	; 0x10c4 <DIO_voidSetPortValue+0x5e>
				{
					DIO->PORTA.All_Bits = 0xFF;
    10ba:	e0 e3       	ldi	r30, 0x30	; 48
    10bc:	f0 e0       	ldi	r31, 0x00	; 0
    10be:	8f ef       	ldi	r24, 0xFF	; 255
    10c0:	83 87       	std	Z+11, r24	; 0x0b
    10c2:	33 c0       	rjmp	.+102    	; 0x112a <DIO_voidSetPortValue+0xc4>
				}
				else if(Copy_Value == LOW)
    10c4:	8a 81       	ldd	r24, Y+2	; 0x02
    10c6:	88 23       	and	r24, r24
    10c8:	81 f5       	brne	.+96     	; 0x112a <DIO_voidSetPortValue+0xc4>
				{
					DIO->PORTA.All_Bits = 0;
    10ca:	e0 e3       	ldi	r30, 0x30	; 48
    10cc:	f0 e0       	ldi	r31, 0x00	; 0
    10ce:	13 86       	std	Z+11, r1	; 0x0b
    10d0:	2c c0       	rjmp	.+88     	; 0x112a <DIO_voidSetPortValue+0xc4>

				}
				break;

			case PORT_B:
				if(Copy_Value == HIGH)
    10d2:	8a 81       	ldd	r24, Y+2	; 0x02
    10d4:	81 30       	cpi	r24, 0x01	; 1
    10d6:	29 f4       	brne	.+10     	; 0x10e2 <DIO_voidSetPortValue+0x7c>
				{
					DIO->PORTB.All_Bits = 0xFF;
    10d8:	e0 e3       	ldi	r30, 0x30	; 48
    10da:	f0 e0       	ldi	r31, 0x00	; 0
    10dc:	8f ef       	ldi	r24, 0xFF	; 255
    10de:	80 87       	std	Z+8, r24	; 0x08
    10e0:	24 c0       	rjmp	.+72     	; 0x112a <DIO_voidSetPortValue+0xc4>
				}
				else if(Copy_Value == LOW)
    10e2:	8a 81       	ldd	r24, Y+2	; 0x02
    10e4:	88 23       	and	r24, r24
    10e6:	09 f5       	brne	.+66     	; 0x112a <DIO_voidSetPortValue+0xc4>
				{
					DIO->PORTB.All_Bits = 0;
    10e8:	e0 e3       	ldi	r30, 0x30	; 48
    10ea:	f0 e0       	ldi	r31, 0x00	; 0
    10ec:	10 86       	std	Z+8, r1	; 0x08
    10ee:	1d c0       	rjmp	.+58     	; 0x112a <DIO_voidSetPortValue+0xc4>
				}
				break;


			case PORT_C:
				if(Copy_Value == HIGH)
    10f0:	8a 81       	ldd	r24, Y+2	; 0x02
    10f2:	81 30       	cpi	r24, 0x01	; 1
    10f4:	29 f4       	brne	.+10     	; 0x1100 <DIO_voidSetPortValue+0x9a>
				{
					DIO->PORTC.All_Bits = 0xFF;
    10f6:	e0 e3       	ldi	r30, 0x30	; 48
    10f8:	f0 e0       	ldi	r31, 0x00	; 0
    10fa:	8f ef       	ldi	r24, 0xFF	; 255
    10fc:	85 83       	std	Z+5, r24	; 0x05
    10fe:	15 c0       	rjmp	.+42     	; 0x112a <DIO_voidSetPortValue+0xc4>
				}
				else if(Copy_Value == LOW)
    1100:	8a 81       	ldd	r24, Y+2	; 0x02
    1102:	88 23       	and	r24, r24
    1104:	91 f4       	brne	.+36     	; 0x112a <DIO_voidSetPortValue+0xc4>
				{
					DIO->PORTC.All_Bits = 0;
    1106:	e0 e3       	ldi	r30, 0x30	; 48
    1108:	f0 e0       	ldi	r31, 0x00	; 0
    110a:	15 82       	std	Z+5, r1	; 0x05
    110c:	0e c0       	rjmp	.+28     	; 0x112a <DIO_voidSetPortValue+0xc4>

				}
				break;

			case PORT_D:
				if(Copy_Value == HIGH)
    110e:	8a 81       	ldd	r24, Y+2	; 0x02
    1110:	81 30       	cpi	r24, 0x01	; 1
    1112:	29 f4       	brne	.+10     	; 0x111e <DIO_voidSetPortValue+0xb8>
				{
					DIO->PORTD.All_Bits = 0xFF;
    1114:	e0 e3       	ldi	r30, 0x30	; 48
    1116:	f0 e0       	ldi	r31, 0x00	; 0
    1118:	8f ef       	ldi	r24, 0xFF	; 255
    111a:	82 83       	std	Z+2, r24	; 0x02
    111c:	06 c0       	rjmp	.+12     	; 0x112a <DIO_voidSetPortValue+0xc4>
				}
				else if(Copy_Value == LOW)
    111e:	8a 81       	ldd	r24, Y+2	; 0x02
    1120:	88 23       	and	r24, r24
    1122:	19 f4       	brne	.+6      	; 0x112a <DIO_voidSetPortValue+0xc4>
				{
					DIO->PORTD.All_Bits = 0;
    1124:	e0 e3       	ldi	r30, 0x30	; 48
    1126:	f0 e0       	ldi	r31, 0x00	; 0
    1128:	12 82       	std	Z+2, r1	; 0x02

				}
				break;
		}
}
    112a:	0f 90       	pop	r0
    112c:	0f 90       	pop	r0
    112e:	0f 90       	pop	r0
    1130:	0f 90       	pop	r0
    1132:	cf 91       	pop	r28
    1134:	df 91       	pop	r29
    1136:	08 95       	ret

00001138 <DIO_voidGetPortValue>:
u8 DIO_voidGetPortValue(PORT_t Copy_PortId)
{
    1138:	df 93       	push	r29
    113a:	cf 93       	push	r28
    113c:	00 d0       	rcall	.+0      	; 0x113e <DIO_voidGetPortValue+0x6>
    113e:	00 d0       	rcall	.+0      	; 0x1140 <DIO_voidGetPortValue+0x8>
    1140:	cd b7       	in	r28, 0x3d	; 61
    1142:	de b7       	in	r29, 0x3e	; 62
    1144:	8a 83       	std	Y+2, r24	; 0x02
	u8 Local_u8Pin;
	switch(Copy_PortId)
    1146:	8a 81       	ldd	r24, Y+2	; 0x02
    1148:	28 2f       	mov	r18, r24
    114a:	30 e0       	ldi	r19, 0x00	; 0
    114c:	3c 83       	std	Y+4, r19	; 0x04
    114e:	2b 83       	std	Y+3, r18	; 0x03
    1150:	8b 81       	ldd	r24, Y+3	; 0x03
    1152:	9c 81       	ldd	r25, Y+4	; 0x04
    1154:	81 30       	cpi	r24, 0x01	; 1
    1156:	91 05       	cpc	r25, r1
    1158:	d1 f0       	breq	.+52     	; 0x118e <DIO_voidGetPortValue+0x56>
    115a:	2b 81       	ldd	r18, Y+3	; 0x03
    115c:	3c 81       	ldd	r19, Y+4	; 0x04
    115e:	22 30       	cpi	r18, 0x02	; 2
    1160:	31 05       	cpc	r19, r1
    1162:	2c f4       	brge	.+10     	; 0x116e <DIO_voidGetPortValue+0x36>
    1164:	8b 81       	ldd	r24, Y+3	; 0x03
    1166:	9c 81       	ldd	r25, Y+4	; 0x04
    1168:	00 97       	sbiw	r24, 0x00	; 0
    116a:	61 f0       	breq	.+24     	; 0x1184 <DIO_voidGetPortValue+0x4c>
    116c:	1e c0       	rjmp	.+60     	; 0x11aa <DIO_voidGetPortValue+0x72>
    116e:	2b 81       	ldd	r18, Y+3	; 0x03
    1170:	3c 81       	ldd	r19, Y+4	; 0x04
    1172:	22 30       	cpi	r18, 0x02	; 2
    1174:	31 05       	cpc	r19, r1
    1176:	81 f0       	breq	.+32     	; 0x1198 <DIO_voidGetPortValue+0x60>
    1178:	8b 81       	ldd	r24, Y+3	; 0x03
    117a:	9c 81       	ldd	r25, Y+4	; 0x04
    117c:	83 30       	cpi	r24, 0x03	; 3
    117e:	91 05       	cpc	r25, r1
    1180:	81 f0       	breq	.+32     	; 0x11a2 <DIO_voidGetPortValue+0x6a>
    1182:	13 c0       	rjmp	.+38     	; 0x11aa <DIO_voidGetPortValue+0x72>
	{
		case PORT_A:
			Local_u8Pin = DIO->PINA.All_Bits;
    1184:	e0 e3       	ldi	r30, 0x30	; 48
    1186:	f0 e0       	ldi	r31, 0x00	; 0
    1188:	81 85       	ldd	r24, Z+9	; 0x09
    118a:	89 83       	std	Y+1, r24	; 0x01
    118c:	0e c0       	rjmp	.+28     	; 0x11aa <DIO_voidGetPortValue+0x72>
		break;
		case PORT_B:
			Local_u8Pin = DIO->PINB.All_Bits;
    118e:	e0 e3       	ldi	r30, 0x30	; 48
    1190:	f0 e0       	ldi	r31, 0x00	; 0
    1192:	86 81       	ldd	r24, Z+6	; 0x06
    1194:	89 83       	std	Y+1, r24	; 0x01
    1196:	09 c0       	rjmp	.+18     	; 0x11aa <DIO_voidGetPortValue+0x72>
		break;
		case PORT_C:
			Local_u8Pin = DIO->PINC.All_Bits;
    1198:	e0 e3       	ldi	r30, 0x30	; 48
    119a:	f0 e0       	ldi	r31, 0x00	; 0
    119c:	83 81       	ldd	r24, Z+3	; 0x03
    119e:	89 83       	std	Y+1, r24	; 0x01
    11a0:	04 c0       	rjmp	.+8      	; 0x11aa <DIO_voidGetPortValue+0x72>

		break;
		case PORT_D:
			Local_u8Pin = DIO->PIND.All_Bits;
    11a2:	e0 e3       	ldi	r30, 0x30	; 48
    11a4:	f0 e0       	ldi	r31, 0x00	; 0
    11a6:	80 81       	ld	r24, Z
    11a8:	89 83       	std	Y+1, r24	; 0x01
		break;
		default: break;
	}
	return Local_u8Pin;
    11aa:	89 81       	ldd	r24, Y+1	; 0x01
}
    11ac:	0f 90       	pop	r0
    11ae:	0f 90       	pop	r0
    11b0:	0f 90       	pop	r0
    11b2:	0f 90       	pop	r0
    11b4:	cf 91       	pop	r28
    11b6:	df 91       	pop	r29
    11b8:	08 95       	ret

000011ba <MEXTI_voidSetSignalLatch>:
#include "../inc/EXTI_config.h"

void (* EXTI_CallBack[3])(void) ={'\0'} ;

void MEXTI_voidSetSignalLatch(MEXTI_IDs_t Copy_EXTI_ID , MEXTI_MODE_t Copy_EXTIMode)
{
    11ba:	df 93       	push	r29
    11bc:	cf 93       	push	r28
    11be:	cd b7       	in	r28, 0x3d	; 61
    11c0:	de b7       	in	r29, 0x3e	; 62
    11c2:	2a 97       	sbiw	r28, 0x0a	; 10
    11c4:	0f b6       	in	r0, 0x3f	; 63
    11c6:	f8 94       	cli
    11c8:	de bf       	out	0x3e, r29	; 62
    11ca:	0f be       	out	0x3f, r0	; 63
    11cc:	cd bf       	out	0x3d, r28	; 61
    11ce:	89 83       	std	Y+1, r24	; 0x01
    11d0:	6a 83       	std	Y+2, r22	; 0x02
	switch(Copy_EXTI_ID)
    11d2:	89 81       	ldd	r24, Y+1	; 0x01
    11d4:	28 2f       	mov	r18, r24
    11d6:	30 e0       	ldi	r19, 0x00	; 0
    11d8:	3a 87       	std	Y+10, r19	; 0x0a
    11da:	29 87       	std	Y+9, r18	; 0x09
    11dc:	89 85       	ldd	r24, Y+9	; 0x09
    11de:	9a 85       	ldd	r25, Y+10	; 0x0a
    11e0:	81 30       	cpi	r24, 0x01	; 1
    11e2:	91 05       	cpc	r25, r1
    11e4:	09 f4       	brne	.+2      	; 0x11e8 <MEXTI_voidSetSignalLatch+0x2e>
    11e6:	72 c0       	rjmp	.+228    	; 0x12cc <MEXTI_voidSetSignalLatch+0x112>
    11e8:	29 85       	ldd	r18, Y+9	; 0x09
    11ea:	3a 85       	ldd	r19, Y+10	; 0x0a
    11ec:	22 30       	cpi	r18, 0x02	; 2
    11ee:	31 05       	cpc	r19, r1
    11f0:	09 f4       	brne	.+2      	; 0x11f4 <MEXTI_voidSetSignalLatch+0x3a>
    11f2:	d3 c0       	rjmp	.+422    	; 0x139a <MEXTI_voidSetSignalLatch+0x1e0>
    11f4:	89 85       	ldd	r24, Y+9	; 0x09
    11f6:	9a 85       	ldd	r25, Y+10	; 0x0a
    11f8:	00 97       	sbiw	r24, 0x00	; 0
    11fa:	09 f0       	breq	.+2      	; 0x11fe <MEXTI_voidSetSignalLatch+0x44>
    11fc:	ed c0       	rjmp	.+474    	; 0x13d8 <MEXTI_voidSetSignalLatch+0x21e>
	{
		case MEXTI_INT0:
			switch (Copy_EXTIMode)
    11fe:	8a 81       	ldd	r24, Y+2	; 0x02
    1200:	28 2f       	mov	r18, r24
    1202:	30 e0       	ldi	r19, 0x00	; 0
    1204:	38 87       	std	Y+8, r19	; 0x08
    1206:	2f 83       	std	Y+7, r18	; 0x07
    1208:	8f 81       	ldd	r24, Y+7	; 0x07
    120a:	98 85       	ldd	r25, Y+8	; 0x08
    120c:	81 30       	cpi	r24, 0x01	; 1
    120e:	91 05       	cpc	r25, r1
    1210:	39 f1       	breq	.+78     	; 0x1260 <MEXTI_voidSetSignalLatch+0xa6>
    1212:	2f 81       	ldd	r18, Y+7	; 0x07
    1214:	38 85       	ldd	r19, Y+8	; 0x08
    1216:	22 30       	cpi	r18, 0x02	; 2
    1218:	31 05       	cpc	r19, r1
    121a:	2c f4       	brge	.+10     	; 0x1226 <MEXTI_voidSetSignalLatch+0x6c>
    121c:	8f 81       	ldd	r24, Y+7	; 0x07
    121e:	98 85       	ldd	r25, Y+8	; 0x08
    1220:	00 97       	sbiw	r24, 0x00	; 0
    1222:	61 f0       	breq	.+24     	; 0x123c <MEXTI_voidSetSignalLatch+0x82>
    1224:	d9 c0       	rjmp	.+434    	; 0x13d8 <MEXTI_voidSetSignalLatch+0x21e>
    1226:	2f 81       	ldd	r18, Y+7	; 0x07
    1228:	38 85       	ldd	r19, Y+8	; 0x08
    122a:	22 30       	cpi	r18, 0x02	; 2
    122c:	31 05       	cpc	r19, r1
    122e:	51 f1       	breq	.+84     	; 0x1284 <MEXTI_voidSetSignalLatch+0xca>
    1230:	8f 81       	ldd	r24, Y+7	; 0x07
    1232:	98 85       	ldd	r25, Y+8	; 0x08
    1234:	83 30       	cpi	r24, 0x03	; 3
    1236:	91 05       	cpc	r25, r1
    1238:	b9 f1       	breq	.+110    	; 0x12a8 <MEXTI_voidSetSignalLatch+0xee>
    123a:	ce c0       	rjmp	.+412    	; 0x13d8 <MEXTI_voidSetSignalLatch+0x21e>
			{
				case MEXTI_LOW_LEVEL  :
					CLR_BIT( EXTI->MCUCR , 0);
    123c:	a4 e5       	ldi	r26, 0x54	; 84
    123e:	b0 e0       	ldi	r27, 0x00	; 0
    1240:	e4 e5       	ldi	r30, 0x54	; 84
    1242:	f0 e0       	ldi	r31, 0x00	; 0
    1244:	81 81       	ldd	r24, Z+1	; 0x01
    1246:	8e 7f       	andi	r24, 0xFE	; 254
    1248:	11 96       	adiw	r26, 0x01	; 1
    124a:	8c 93       	st	X, r24
					CLR_BIT( EXTI->MCUCR , 1);
    124c:	a4 e5       	ldi	r26, 0x54	; 84
    124e:	b0 e0       	ldi	r27, 0x00	; 0
    1250:	e4 e5       	ldi	r30, 0x54	; 84
    1252:	f0 e0       	ldi	r31, 0x00	; 0
    1254:	81 81       	ldd	r24, Z+1	; 0x01
    1256:	8d 7f       	andi	r24, 0xFD	; 253
    1258:	11 96       	adiw	r26, 0x01	; 1
    125a:	8c 93       	st	X, r24
    125c:	11 97       	sbiw	r26, 0x01	; 1
    125e:	bc c0       	rjmp	.+376    	; 0x13d8 <MEXTI_voidSetSignalLatch+0x21e>
					break;
				case MEXTI_ANY_CHANGE :
					SET_BIT( EXTI->MCUCR , 0);
    1260:	a4 e5       	ldi	r26, 0x54	; 84
    1262:	b0 e0       	ldi	r27, 0x00	; 0
    1264:	e4 e5       	ldi	r30, 0x54	; 84
    1266:	f0 e0       	ldi	r31, 0x00	; 0
    1268:	81 81       	ldd	r24, Z+1	; 0x01
    126a:	81 60       	ori	r24, 0x01	; 1
    126c:	11 96       	adiw	r26, 0x01	; 1
    126e:	8c 93       	st	X, r24
					CLR_BIT( EXTI->MCUCR , 1);
    1270:	a4 e5       	ldi	r26, 0x54	; 84
    1272:	b0 e0       	ldi	r27, 0x00	; 0
    1274:	e4 e5       	ldi	r30, 0x54	; 84
    1276:	f0 e0       	ldi	r31, 0x00	; 0
    1278:	81 81       	ldd	r24, Z+1	; 0x01
    127a:	8d 7f       	andi	r24, 0xFD	; 253
    127c:	11 96       	adiw	r26, 0x01	; 1
    127e:	8c 93       	st	X, r24
    1280:	11 97       	sbiw	r26, 0x01	; 1
    1282:	aa c0       	rjmp	.+340    	; 0x13d8 <MEXTI_voidSetSignalLatch+0x21e>
					break;
				case MEXTI_FALLING_EDGE    :
					CLR_BIT( EXTI->MCUCR , 0);
    1284:	a4 e5       	ldi	r26, 0x54	; 84
    1286:	b0 e0       	ldi	r27, 0x00	; 0
    1288:	e4 e5       	ldi	r30, 0x54	; 84
    128a:	f0 e0       	ldi	r31, 0x00	; 0
    128c:	81 81       	ldd	r24, Z+1	; 0x01
    128e:	8e 7f       	andi	r24, 0xFE	; 254
    1290:	11 96       	adiw	r26, 0x01	; 1
    1292:	8c 93       	st	X, r24
					SET_BIT( EXTI->MCUCR , 1);
    1294:	a4 e5       	ldi	r26, 0x54	; 84
    1296:	b0 e0       	ldi	r27, 0x00	; 0
    1298:	e4 e5       	ldi	r30, 0x54	; 84
    129a:	f0 e0       	ldi	r31, 0x00	; 0
    129c:	81 81       	ldd	r24, Z+1	; 0x01
    129e:	82 60       	ori	r24, 0x02	; 2
    12a0:	11 96       	adiw	r26, 0x01	; 1
    12a2:	8c 93       	st	X, r24
    12a4:	11 97       	sbiw	r26, 0x01	; 1
    12a6:	98 c0       	rjmp	.+304    	; 0x13d8 <MEXTI_voidSetSignalLatch+0x21e>
					break;
				case MEXTI_RISING_EDGE    :
					SET_BIT( EXTI->MCUCR , 0);
    12a8:	a4 e5       	ldi	r26, 0x54	; 84
    12aa:	b0 e0       	ldi	r27, 0x00	; 0
    12ac:	e4 e5       	ldi	r30, 0x54	; 84
    12ae:	f0 e0       	ldi	r31, 0x00	; 0
    12b0:	81 81       	ldd	r24, Z+1	; 0x01
    12b2:	81 60       	ori	r24, 0x01	; 1
    12b4:	11 96       	adiw	r26, 0x01	; 1
    12b6:	8c 93       	st	X, r24
					SET_BIT( EXTI->MCUCR , 1);
    12b8:	a4 e5       	ldi	r26, 0x54	; 84
    12ba:	b0 e0       	ldi	r27, 0x00	; 0
    12bc:	e4 e5       	ldi	r30, 0x54	; 84
    12be:	f0 e0       	ldi	r31, 0x00	; 0
    12c0:	81 81       	ldd	r24, Z+1	; 0x01
    12c2:	82 60       	ori	r24, 0x02	; 2
    12c4:	11 96       	adiw	r26, 0x01	; 1
    12c6:	8c 93       	st	X, r24
    12c8:	11 97       	sbiw	r26, 0x01	; 1
    12ca:	86 c0       	rjmp	.+268    	; 0x13d8 <MEXTI_voidSetSignalLatch+0x21e>
					break;
				default: break;
			}
			break;
		case MEXTI_INT1:
			switch (Copy_EXTIMode)
    12cc:	8a 81       	ldd	r24, Y+2	; 0x02
    12ce:	28 2f       	mov	r18, r24
    12d0:	30 e0       	ldi	r19, 0x00	; 0
    12d2:	3e 83       	std	Y+6, r19	; 0x06
    12d4:	2d 83       	std	Y+5, r18	; 0x05
    12d6:	8d 81       	ldd	r24, Y+5	; 0x05
    12d8:	9e 81       	ldd	r25, Y+6	; 0x06
    12da:	81 30       	cpi	r24, 0x01	; 1
    12dc:	91 05       	cpc	r25, r1
    12de:	39 f1       	breq	.+78     	; 0x132e <MEXTI_voidSetSignalLatch+0x174>
    12e0:	2d 81       	ldd	r18, Y+5	; 0x05
    12e2:	3e 81       	ldd	r19, Y+6	; 0x06
    12e4:	22 30       	cpi	r18, 0x02	; 2
    12e6:	31 05       	cpc	r19, r1
    12e8:	2c f4       	brge	.+10     	; 0x12f4 <MEXTI_voidSetSignalLatch+0x13a>
    12ea:	8d 81       	ldd	r24, Y+5	; 0x05
    12ec:	9e 81       	ldd	r25, Y+6	; 0x06
    12ee:	00 97       	sbiw	r24, 0x00	; 0
    12f0:	61 f0       	breq	.+24     	; 0x130a <MEXTI_voidSetSignalLatch+0x150>
    12f2:	72 c0       	rjmp	.+228    	; 0x13d8 <MEXTI_voidSetSignalLatch+0x21e>
    12f4:	2d 81       	ldd	r18, Y+5	; 0x05
    12f6:	3e 81       	ldd	r19, Y+6	; 0x06
    12f8:	22 30       	cpi	r18, 0x02	; 2
    12fa:	31 05       	cpc	r19, r1
    12fc:	51 f1       	breq	.+84     	; 0x1352 <MEXTI_voidSetSignalLatch+0x198>
    12fe:	8d 81       	ldd	r24, Y+5	; 0x05
    1300:	9e 81       	ldd	r25, Y+6	; 0x06
    1302:	83 30       	cpi	r24, 0x03	; 3
    1304:	91 05       	cpc	r25, r1
    1306:	b9 f1       	breq	.+110    	; 0x1376 <MEXTI_voidSetSignalLatch+0x1bc>
    1308:	67 c0       	rjmp	.+206    	; 0x13d8 <MEXTI_voidSetSignalLatch+0x21e>
			{
				case MEXTI_LOW_LEVEL  :
					CLR_BIT( EXTI->MCUCR , 2);
    130a:	a4 e5       	ldi	r26, 0x54	; 84
    130c:	b0 e0       	ldi	r27, 0x00	; 0
    130e:	e4 e5       	ldi	r30, 0x54	; 84
    1310:	f0 e0       	ldi	r31, 0x00	; 0
    1312:	81 81       	ldd	r24, Z+1	; 0x01
    1314:	8b 7f       	andi	r24, 0xFB	; 251
    1316:	11 96       	adiw	r26, 0x01	; 1
    1318:	8c 93       	st	X, r24
					CLR_BIT( EXTI->MCUCR , 3);
    131a:	a4 e5       	ldi	r26, 0x54	; 84
    131c:	b0 e0       	ldi	r27, 0x00	; 0
    131e:	e4 e5       	ldi	r30, 0x54	; 84
    1320:	f0 e0       	ldi	r31, 0x00	; 0
    1322:	81 81       	ldd	r24, Z+1	; 0x01
    1324:	87 7f       	andi	r24, 0xF7	; 247
    1326:	11 96       	adiw	r26, 0x01	; 1
    1328:	8c 93       	st	X, r24
    132a:	11 97       	sbiw	r26, 0x01	; 1
    132c:	55 c0       	rjmp	.+170    	; 0x13d8 <MEXTI_voidSetSignalLatch+0x21e>
					break;
				case MEXTI_ANY_CHANGE :
					SET_BIT( EXTI->MCUCR , 2);
    132e:	a4 e5       	ldi	r26, 0x54	; 84
    1330:	b0 e0       	ldi	r27, 0x00	; 0
    1332:	e4 e5       	ldi	r30, 0x54	; 84
    1334:	f0 e0       	ldi	r31, 0x00	; 0
    1336:	81 81       	ldd	r24, Z+1	; 0x01
    1338:	84 60       	ori	r24, 0x04	; 4
    133a:	11 96       	adiw	r26, 0x01	; 1
    133c:	8c 93       	st	X, r24
					CLR_BIT( EXTI->MCUCR , 3);
    133e:	a4 e5       	ldi	r26, 0x54	; 84
    1340:	b0 e0       	ldi	r27, 0x00	; 0
    1342:	e4 e5       	ldi	r30, 0x54	; 84
    1344:	f0 e0       	ldi	r31, 0x00	; 0
    1346:	81 81       	ldd	r24, Z+1	; 0x01
    1348:	87 7f       	andi	r24, 0xF7	; 247
    134a:	11 96       	adiw	r26, 0x01	; 1
    134c:	8c 93       	st	X, r24
    134e:	11 97       	sbiw	r26, 0x01	; 1
    1350:	43 c0       	rjmp	.+134    	; 0x13d8 <MEXTI_voidSetSignalLatch+0x21e>
					break;
				case MEXTI_FALLING_EDGE    :
					CLR_BIT( EXTI->MCUCR , 2);
    1352:	a4 e5       	ldi	r26, 0x54	; 84
    1354:	b0 e0       	ldi	r27, 0x00	; 0
    1356:	e4 e5       	ldi	r30, 0x54	; 84
    1358:	f0 e0       	ldi	r31, 0x00	; 0
    135a:	81 81       	ldd	r24, Z+1	; 0x01
    135c:	8b 7f       	andi	r24, 0xFB	; 251
    135e:	11 96       	adiw	r26, 0x01	; 1
    1360:	8c 93       	st	X, r24
					SET_BIT( EXTI->MCUCR , 3);
    1362:	a4 e5       	ldi	r26, 0x54	; 84
    1364:	b0 e0       	ldi	r27, 0x00	; 0
    1366:	e4 e5       	ldi	r30, 0x54	; 84
    1368:	f0 e0       	ldi	r31, 0x00	; 0
    136a:	81 81       	ldd	r24, Z+1	; 0x01
    136c:	88 60       	ori	r24, 0x08	; 8
    136e:	11 96       	adiw	r26, 0x01	; 1
    1370:	8c 93       	st	X, r24
    1372:	11 97       	sbiw	r26, 0x01	; 1
    1374:	31 c0       	rjmp	.+98     	; 0x13d8 <MEXTI_voidSetSignalLatch+0x21e>
					break;
				case MEXTI_RISING_EDGE    :
					SET_BIT( EXTI->MCUCR , 2);
    1376:	a4 e5       	ldi	r26, 0x54	; 84
    1378:	b0 e0       	ldi	r27, 0x00	; 0
    137a:	e4 e5       	ldi	r30, 0x54	; 84
    137c:	f0 e0       	ldi	r31, 0x00	; 0
    137e:	81 81       	ldd	r24, Z+1	; 0x01
    1380:	84 60       	ori	r24, 0x04	; 4
    1382:	11 96       	adiw	r26, 0x01	; 1
    1384:	8c 93       	st	X, r24
					SET_BIT( EXTI->MCUCR , 3);
    1386:	a4 e5       	ldi	r26, 0x54	; 84
    1388:	b0 e0       	ldi	r27, 0x00	; 0
    138a:	e4 e5       	ldi	r30, 0x54	; 84
    138c:	f0 e0       	ldi	r31, 0x00	; 0
    138e:	81 81       	ldd	r24, Z+1	; 0x01
    1390:	88 60       	ori	r24, 0x08	; 8
    1392:	11 96       	adiw	r26, 0x01	; 1
    1394:	8c 93       	st	X, r24
    1396:	11 97       	sbiw	r26, 0x01	; 1
    1398:	1f c0       	rjmp	.+62     	; 0x13d8 <MEXTI_voidSetSignalLatch+0x21e>
				default: break;

			}
			break;
		case MEXTI_INT2:
			switch (Copy_EXTIMode)
    139a:	8a 81       	ldd	r24, Y+2	; 0x02
    139c:	28 2f       	mov	r18, r24
    139e:	30 e0       	ldi	r19, 0x00	; 0
    13a0:	3c 83       	std	Y+4, r19	; 0x04
    13a2:	2b 83       	std	Y+3, r18	; 0x03
    13a4:	8b 81       	ldd	r24, Y+3	; 0x03
    13a6:	9c 81       	ldd	r25, Y+4	; 0x04
    13a8:	82 30       	cpi	r24, 0x02	; 2
    13aa:	91 05       	cpc	r25, r1
    13ac:	31 f0       	breq	.+12     	; 0x13ba <MEXTI_voidSetSignalLatch+0x200>
    13ae:	2b 81       	ldd	r18, Y+3	; 0x03
    13b0:	3c 81       	ldd	r19, Y+4	; 0x04
    13b2:	23 30       	cpi	r18, 0x03	; 3
    13b4:	31 05       	cpc	r19, r1
    13b6:	49 f0       	breq	.+18     	; 0x13ca <MEXTI_voidSetSignalLatch+0x210>
    13b8:	0f c0       	rjmp	.+30     	; 0x13d8 <MEXTI_voidSetSignalLatch+0x21e>
			{
				case MEXTI_FALLING_EDGE    :
					CLR_BIT( EXTI->MCUCSR , 6);
    13ba:	a4 e5       	ldi	r26, 0x54	; 84
    13bc:	b0 e0       	ldi	r27, 0x00	; 0
    13be:	e4 e5       	ldi	r30, 0x54	; 84
    13c0:	f0 e0       	ldi	r31, 0x00	; 0
    13c2:	80 81       	ld	r24, Z
    13c4:	8f 7b       	andi	r24, 0xBF	; 191
    13c6:	8c 93       	st	X, r24
    13c8:	07 c0       	rjmp	.+14     	; 0x13d8 <MEXTI_voidSetSignalLatch+0x21e>
					break;
				case MEXTI_RISING_EDGE    :
					SET_BIT( EXTI->MCUCSR , 6);
    13ca:	a4 e5       	ldi	r26, 0x54	; 84
    13cc:	b0 e0       	ldi	r27, 0x00	; 0
    13ce:	e4 e5       	ldi	r30, 0x54	; 84
    13d0:	f0 e0       	ldi	r31, 0x00	; 0
    13d2:	80 81       	ld	r24, Z
    13d4:	80 64       	ori	r24, 0x40	; 64
    13d6:	8c 93       	st	X, r24
			break;
		default: break;

	}

}
    13d8:	2a 96       	adiw	r28, 0x0a	; 10
    13da:	0f b6       	in	r0, 0x3f	; 63
    13dc:	f8 94       	cli
    13de:	de bf       	out	0x3e, r29	; 62
    13e0:	0f be       	out	0x3f, r0	; 63
    13e2:	cd bf       	out	0x3d, r28	; 61
    13e4:	cf 91       	pop	r28
    13e6:	df 91       	pop	r29
    13e8:	08 95       	ret

000013ea <MEXTI_voidEnableEXTI>:




void MEXTI_voidEnableEXTI(MEXTI_IDs_t Copy_EXTI_ID)
{
    13ea:	df 93       	push	r29
    13ec:	cf 93       	push	r28
    13ee:	00 d0       	rcall	.+0      	; 0x13f0 <MEXTI_voidEnableEXTI+0x6>
    13f0:	0f 92       	push	r0
    13f2:	cd b7       	in	r28, 0x3d	; 61
    13f4:	de b7       	in	r29, 0x3e	; 62
    13f6:	89 83       	std	Y+1, r24	; 0x01
	switch(Copy_EXTI_ID)
    13f8:	89 81       	ldd	r24, Y+1	; 0x01
    13fa:	28 2f       	mov	r18, r24
    13fc:	30 e0       	ldi	r19, 0x00	; 0
    13fe:	3b 83       	std	Y+3, r19	; 0x03
    1400:	2a 83       	std	Y+2, r18	; 0x02
    1402:	8a 81       	ldd	r24, Y+2	; 0x02
    1404:	9b 81       	ldd	r25, Y+3	; 0x03
    1406:	81 30       	cpi	r24, 0x01	; 1
    1408:	91 05       	cpc	r25, r1
    140a:	99 f0       	breq	.+38     	; 0x1432 <MEXTI_voidEnableEXTI+0x48>
    140c:	2a 81       	ldd	r18, Y+2	; 0x02
    140e:	3b 81       	ldd	r19, Y+3	; 0x03
    1410:	22 30       	cpi	r18, 0x02	; 2
    1412:	31 05       	cpc	r19, r1
    1414:	c1 f0       	breq	.+48     	; 0x1446 <MEXTI_voidEnableEXTI+0x5c>
    1416:	8a 81       	ldd	r24, Y+2	; 0x02
    1418:	9b 81       	ldd	r25, Y+3	; 0x03
    141a:	00 97       	sbiw	r24, 0x00	; 0
    141c:	e9 f4       	brne	.+58     	; 0x1458 <MEXTI_voidEnableEXTI+0x6e>
	{
		case MEXTI_INT0 :
					SET_BIT( EXTI->GICR , 6);
    141e:	a4 e5       	ldi	r26, 0x54	; 84
    1420:	b0 e0       	ldi	r27, 0x00	; 0
    1422:	e4 e5       	ldi	r30, 0x54	; 84
    1424:	f0 e0       	ldi	r31, 0x00	; 0
    1426:	87 81       	ldd	r24, Z+7	; 0x07
    1428:	80 64       	ori	r24, 0x40	; 64
    142a:	17 96       	adiw	r26, 0x07	; 7
    142c:	8c 93       	st	X, r24
    142e:	17 97       	sbiw	r26, 0x07	; 7
    1430:	13 c0       	rjmp	.+38     	; 0x1458 <MEXTI_voidEnableEXTI+0x6e>
					break;
					
		case MEXTI_INT1 :
					SET_BIT( EXTI->GICR , 7);
    1432:	a4 e5       	ldi	r26, 0x54	; 84
    1434:	b0 e0       	ldi	r27, 0x00	; 0
    1436:	e4 e5       	ldi	r30, 0x54	; 84
    1438:	f0 e0       	ldi	r31, 0x00	; 0
    143a:	87 81       	ldd	r24, Z+7	; 0x07
    143c:	80 68       	ori	r24, 0x80	; 128
    143e:	17 96       	adiw	r26, 0x07	; 7
    1440:	8c 93       	st	X, r24
    1442:	17 97       	sbiw	r26, 0x07	; 7
    1444:	09 c0       	rjmp	.+18     	; 0x1458 <MEXTI_voidEnableEXTI+0x6e>
					break;	
					
		case MEXTI_INT2 :
					SET_BIT( EXTI->GICR , 5);
    1446:	a4 e5       	ldi	r26, 0x54	; 84
    1448:	b0 e0       	ldi	r27, 0x00	; 0
    144a:	e4 e5       	ldi	r30, 0x54	; 84
    144c:	f0 e0       	ldi	r31, 0x00	; 0
    144e:	87 81       	ldd	r24, Z+7	; 0x07
    1450:	80 62       	ori	r24, 0x20	; 32
    1452:	17 96       	adiw	r26, 0x07	; 7
    1454:	8c 93       	st	X, r24
    1456:	17 97       	sbiw	r26, 0x07	; 7
					break;
					
		default: break;
	}
}
    1458:	0f 90       	pop	r0
    145a:	0f 90       	pop	r0
    145c:	0f 90       	pop	r0
    145e:	cf 91       	pop	r28
    1460:	df 91       	pop	r29
    1462:	08 95       	ret

00001464 <MEXTI_voidDisableEXTI>:




void MEXTI_voidDisableEXTI(MEXTI_IDs_t Copy_EXTI_ID)
{	
    1464:	df 93       	push	r29
    1466:	cf 93       	push	r28
    1468:	00 d0       	rcall	.+0      	; 0x146a <MEXTI_voidDisableEXTI+0x6>
    146a:	0f 92       	push	r0
    146c:	cd b7       	in	r28, 0x3d	; 61
    146e:	de b7       	in	r29, 0x3e	; 62
    1470:	89 83       	std	Y+1, r24	; 0x01
	switch(Copy_EXTI_ID)
    1472:	89 81       	ldd	r24, Y+1	; 0x01
    1474:	28 2f       	mov	r18, r24
    1476:	30 e0       	ldi	r19, 0x00	; 0
    1478:	3b 83       	std	Y+3, r19	; 0x03
    147a:	2a 83       	std	Y+2, r18	; 0x02
    147c:	8a 81       	ldd	r24, Y+2	; 0x02
    147e:	9b 81       	ldd	r25, Y+3	; 0x03
    1480:	81 30       	cpi	r24, 0x01	; 1
    1482:	91 05       	cpc	r25, r1
    1484:	99 f0       	breq	.+38     	; 0x14ac <MEXTI_voidDisableEXTI+0x48>
    1486:	2a 81       	ldd	r18, Y+2	; 0x02
    1488:	3b 81       	ldd	r19, Y+3	; 0x03
    148a:	22 30       	cpi	r18, 0x02	; 2
    148c:	31 05       	cpc	r19, r1
    148e:	c1 f0       	breq	.+48     	; 0x14c0 <MEXTI_voidDisableEXTI+0x5c>
    1490:	8a 81       	ldd	r24, Y+2	; 0x02
    1492:	9b 81       	ldd	r25, Y+3	; 0x03
    1494:	00 97       	sbiw	r24, 0x00	; 0
    1496:	e9 f4       	brne	.+58     	; 0x14d2 <MEXTI_voidDisableEXTI+0x6e>
	{
		case MEXTI_INT0 :
					CLR_BIT( EXTI->GICR , 6);
    1498:	a4 e5       	ldi	r26, 0x54	; 84
    149a:	b0 e0       	ldi	r27, 0x00	; 0
    149c:	e4 e5       	ldi	r30, 0x54	; 84
    149e:	f0 e0       	ldi	r31, 0x00	; 0
    14a0:	87 81       	ldd	r24, Z+7	; 0x07
    14a2:	8f 7b       	andi	r24, 0xBF	; 191
    14a4:	17 96       	adiw	r26, 0x07	; 7
    14a6:	8c 93       	st	X, r24
    14a8:	17 97       	sbiw	r26, 0x07	; 7
    14aa:	13 c0       	rjmp	.+38     	; 0x14d2 <MEXTI_voidDisableEXTI+0x6e>
					break;
					
		case MEXTI_INT1 :
					CLR_BIT( EXTI->GICR , 7);
    14ac:	a4 e5       	ldi	r26, 0x54	; 84
    14ae:	b0 e0       	ldi	r27, 0x00	; 0
    14b0:	e4 e5       	ldi	r30, 0x54	; 84
    14b2:	f0 e0       	ldi	r31, 0x00	; 0
    14b4:	87 81       	ldd	r24, Z+7	; 0x07
    14b6:	8f 77       	andi	r24, 0x7F	; 127
    14b8:	17 96       	adiw	r26, 0x07	; 7
    14ba:	8c 93       	st	X, r24
    14bc:	17 97       	sbiw	r26, 0x07	; 7
    14be:	09 c0       	rjmp	.+18     	; 0x14d2 <MEXTI_voidDisableEXTI+0x6e>
					break;	
					
		case MEXTI_INT2 :
					CLR_BIT( EXTI->GICR , 5);
    14c0:	a4 e5       	ldi	r26, 0x54	; 84
    14c2:	b0 e0       	ldi	r27, 0x00	; 0
    14c4:	e4 e5       	ldi	r30, 0x54	; 84
    14c6:	f0 e0       	ldi	r31, 0x00	; 0
    14c8:	87 81       	ldd	r24, Z+7	; 0x07
    14ca:	8f 7d       	andi	r24, 0xDF	; 223
    14cc:	17 96       	adiw	r26, 0x07	; 7
    14ce:	8c 93       	st	X, r24
    14d0:	17 97       	sbiw	r26, 0x07	; 7
					break;
					
		default: break;
	}

}
    14d2:	0f 90       	pop	r0
    14d4:	0f 90       	pop	r0
    14d6:	0f 90       	pop	r0
    14d8:	cf 91       	pop	r28
    14da:	df 91       	pop	r29
    14dc:	08 95       	ret

000014de <MEXTI_voidSetCallBack>:



void MEXTI_voidSetCallBack(MEXTI_IDs_t Copy_EXTI_ID ,void (*ptr)(void))
{
    14de:	df 93       	push	r29
    14e0:	cf 93       	push	r28
    14e2:	00 d0       	rcall	.+0      	; 0x14e4 <MEXTI_voidSetCallBack+0x6>
    14e4:	0f 92       	push	r0
    14e6:	cd b7       	in	r28, 0x3d	; 61
    14e8:	de b7       	in	r29, 0x3e	; 62
    14ea:	89 83       	std	Y+1, r24	; 0x01
    14ec:	7b 83       	std	Y+3, r23	; 0x03
    14ee:	6a 83       	std	Y+2, r22	; 0x02
	EXTI_CallBack[Copy_EXTI_ID] = ptr;
    14f0:	89 81       	ldd	r24, Y+1	; 0x01
    14f2:	88 2f       	mov	r24, r24
    14f4:	90 e0       	ldi	r25, 0x00	; 0
    14f6:	88 0f       	add	r24, r24
    14f8:	99 1f       	adc	r25, r25
    14fa:	fc 01       	movw	r30, r24
    14fc:	ee 59       	subi	r30, 0x9E	; 158
    14fe:	ff 4f       	sbci	r31, 0xFF	; 255
    1500:	8a 81       	ldd	r24, Y+2	; 0x02
    1502:	9b 81       	ldd	r25, Y+3	; 0x03
    1504:	91 83       	std	Z+1, r25	; 0x01
    1506:	80 83       	st	Z, r24

}
    1508:	0f 90       	pop	r0
    150a:	0f 90       	pop	r0
    150c:	0f 90       	pop	r0
    150e:	cf 91       	pop	r28
    1510:	df 91       	pop	r29
    1512:	08 95       	ret

00001514 <__vector_1>:


/*************************  INT 0 ***************************/
EXTI0_IRQHandler
{
    1514:	1f 92       	push	r1
    1516:	0f 92       	push	r0
    1518:	0f b6       	in	r0, 0x3f	; 63
    151a:	0f 92       	push	r0
    151c:	11 24       	eor	r1, r1
    151e:	2f 93       	push	r18
    1520:	3f 93       	push	r19
    1522:	4f 93       	push	r20
    1524:	5f 93       	push	r21
    1526:	6f 93       	push	r22
    1528:	7f 93       	push	r23
    152a:	8f 93       	push	r24
    152c:	9f 93       	push	r25
    152e:	af 93       	push	r26
    1530:	bf 93       	push	r27
    1532:	ef 93       	push	r30
    1534:	ff 93       	push	r31
    1536:	df 93       	push	r29
    1538:	cf 93       	push	r28
    153a:	cd b7       	in	r28, 0x3d	; 61
    153c:	de b7       	in	r29, 0x3e	; 62
	EXTI_CallBack[0]();
    153e:	e0 91 62 00 	lds	r30, 0x0062
    1542:	f0 91 63 00 	lds	r31, 0x0063
    1546:	09 95       	icall

}
    1548:	cf 91       	pop	r28
    154a:	df 91       	pop	r29
    154c:	ff 91       	pop	r31
    154e:	ef 91       	pop	r30
    1550:	bf 91       	pop	r27
    1552:	af 91       	pop	r26
    1554:	9f 91       	pop	r25
    1556:	8f 91       	pop	r24
    1558:	7f 91       	pop	r23
    155a:	6f 91       	pop	r22
    155c:	5f 91       	pop	r21
    155e:	4f 91       	pop	r20
    1560:	3f 91       	pop	r19
    1562:	2f 91       	pop	r18
    1564:	0f 90       	pop	r0
    1566:	0f be       	out	0x3f, r0	; 63
    1568:	0f 90       	pop	r0
    156a:	1f 90       	pop	r1
    156c:	18 95       	reti

0000156e <__vector_2>:

/*************************  INT 1 ***************************/
EXTI1_IRQHandler
{
    156e:	1f 92       	push	r1
    1570:	0f 92       	push	r0
    1572:	0f b6       	in	r0, 0x3f	; 63
    1574:	0f 92       	push	r0
    1576:	11 24       	eor	r1, r1
    1578:	2f 93       	push	r18
    157a:	3f 93       	push	r19
    157c:	4f 93       	push	r20
    157e:	5f 93       	push	r21
    1580:	6f 93       	push	r22
    1582:	7f 93       	push	r23
    1584:	8f 93       	push	r24
    1586:	9f 93       	push	r25
    1588:	af 93       	push	r26
    158a:	bf 93       	push	r27
    158c:	ef 93       	push	r30
    158e:	ff 93       	push	r31
    1590:	df 93       	push	r29
    1592:	cf 93       	push	r28
    1594:	cd b7       	in	r28, 0x3d	; 61
    1596:	de b7       	in	r29, 0x3e	; 62
	EXTI_CallBack[1]();
    1598:	e0 91 64 00 	lds	r30, 0x0064
    159c:	f0 91 65 00 	lds	r31, 0x0065
    15a0:	09 95       	icall
}
    15a2:	cf 91       	pop	r28
    15a4:	df 91       	pop	r29
    15a6:	ff 91       	pop	r31
    15a8:	ef 91       	pop	r30
    15aa:	bf 91       	pop	r27
    15ac:	af 91       	pop	r26
    15ae:	9f 91       	pop	r25
    15b0:	8f 91       	pop	r24
    15b2:	7f 91       	pop	r23
    15b4:	6f 91       	pop	r22
    15b6:	5f 91       	pop	r21
    15b8:	4f 91       	pop	r20
    15ba:	3f 91       	pop	r19
    15bc:	2f 91       	pop	r18
    15be:	0f 90       	pop	r0
    15c0:	0f be       	out	0x3f, r0	; 63
    15c2:	0f 90       	pop	r0
    15c4:	1f 90       	pop	r1
    15c6:	18 95       	reti

000015c8 <__vector_3>:
/*************************  INT 2 ***************************/
EXTI2_IRQHandler
{
    15c8:	1f 92       	push	r1
    15ca:	0f 92       	push	r0
    15cc:	0f b6       	in	r0, 0x3f	; 63
    15ce:	0f 92       	push	r0
    15d0:	11 24       	eor	r1, r1
    15d2:	2f 93       	push	r18
    15d4:	3f 93       	push	r19
    15d6:	4f 93       	push	r20
    15d8:	5f 93       	push	r21
    15da:	6f 93       	push	r22
    15dc:	7f 93       	push	r23
    15de:	8f 93       	push	r24
    15e0:	9f 93       	push	r25
    15e2:	af 93       	push	r26
    15e4:	bf 93       	push	r27
    15e6:	ef 93       	push	r30
    15e8:	ff 93       	push	r31
    15ea:	df 93       	push	r29
    15ec:	cf 93       	push	r28
    15ee:	cd b7       	in	r28, 0x3d	; 61
    15f0:	de b7       	in	r29, 0x3e	; 62
	EXTI_CallBack[2]();
    15f2:	e0 91 66 00 	lds	r30, 0x0066
    15f6:	f0 91 67 00 	lds	r31, 0x0067
    15fa:	09 95       	icall

}
    15fc:	cf 91       	pop	r28
    15fe:	df 91       	pop	r29
    1600:	ff 91       	pop	r31
    1602:	ef 91       	pop	r30
    1604:	bf 91       	pop	r27
    1606:	af 91       	pop	r26
    1608:	9f 91       	pop	r25
    160a:	8f 91       	pop	r24
    160c:	7f 91       	pop	r23
    160e:	6f 91       	pop	r22
    1610:	5f 91       	pop	r21
    1612:	4f 91       	pop	r20
    1614:	3f 91       	pop	r19
    1616:	2f 91       	pop	r18
    1618:	0f 90       	pop	r0
    161a:	0f be       	out	0x3f, r0	; 63
    161c:	0f 90       	pop	r0
    161e:	1f 90       	pop	r1
    1620:	18 95       	reti

00001622 <MGIE_voidEnable>:
#include "../inc/GIE_config.h"



void MGIE_voidEnable(void)
{
    1622:	df 93       	push	r29
    1624:	cf 93       	push	r28
    1626:	cd b7       	in	r28, 0x3d	; 61
    1628:	de b7       	in	r29, 0x3e	; 62
	GIE->SREG  |= (GIE_ENABLE  << GIE_BIT) ;
    162a:	af e5       	ldi	r26, 0x5F	; 95
    162c:	b0 e0       	ldi	r27, 0x00	; 0
    162e:	ef e5       	ldi	r30, 0x5F	; 95
    1630:	f0 e0       	ldi	r31, 0x00	; 0
    1632:	80 81       	ld	r24, Z
    1634:	80 68       	ori	r24, 0x80	; 128
    1636:	8c 93       	st	X, r24
}
    1638:	cf 91       	pop	r28
    163a:	df 91       	pop	r29
    163c:	08 95       	ret

0000163e <MGIE_voidDisable>:




void MGIE_voidDisable(void)
{	
    163e:	df 93       	push	r29
    1640:	cf 93       	push	r28
    1642:	cd b7       	in	r28, 0x3d	; 61
    1644:	de b7       	in	r29, 0x3e	; 62
	GIE->SREG  |= (GIE_DISABLE  << GIE_BIT) ;
    1646:	ef e5       	ldi	r30, 0x5F	; 95
    1648:	f0 e0       	ldi	r31, 0x00	; 0
    164a:	af e5       	ldi	r26, 0x5F	; 95
    164c:	b0 e0       	ldi	r27, 0x00	; 0
    164e:	8c 91       	ld	r24, X
    1650:	80 83       	st	Z, r24
}
    1652:	cf 91       	pop	r28
    1654:	df 91       	pop	r29
    1656:	08 95       	ret

00001658 <OS_voidStartScheduler>:

/*******************************************************************************/
/* - Initialize OS and start the Scheduler                                     */
/*******************************************************************************/
void OS_voidStartScheduler(void)
{
    1658:	df 93       	push	r29
    165a:	cf 93       	push	r28
    165c:	cd b7       	in	r28, 0x3d	; 61
    165e:	de b7       	in	r29, 0x3e	; 62
	/* Initialize Timer 0 */
	M_TIMER0_voidInit();
    1660:	0e 94 fc 0c 	call	0x19f8	; 0x19f8 <M_TIMER0_voidInit>
	
	/* Setup the scheduler Tick Time */
	M_TIMER0_voidSetPeriodic(OS_TICK_TIME_UNIT,voidScheduler);
    1664:	22 e5       	ldi	r18, 0x52	; 82
    1666:	3c e0       	ldi	r19, 0x0C	; 12
    1668:	68 ee       	ldi	r22, 0xE8	; 232
    166a:	73 e0       	ldi	r23, 0x03	; 3
    166c:	80 e0       	ldi	r24, 0x00	; 0
    166e:	90 e0       	ldi	r25, 0x00	; 0
    1670:	41 e0       	ldi	r20, 0x01	; 1
    1672:	0e 94 79 0e 	call	0x1cf2	; 0x1cf2 <M_TIMER0_voidSetPeriodic>
}
    1676:	cf 91       	pop	r28
    1678:	df 91       	pop	r29
    167a:	08 95       	ret

0000167c <OS_voidCreateTask>:

/*******************************************************************************/
/* - To Create new task  										               */
/*******************************************************************************/
void OS_voidCreateTask(u16 Copy_u16delay,u16 Copy_u16period,void(*Copy_voidFptr)(void),u8 Copy_u8ID)
{
    167c:	df 93       	push	r29
    167e:	cf 93       	push	r28
    1680:	cd b7       	in	r28, 0x3d	; 61
    1682:	de b7       	in	r29, 0x3e	; 62
    1684:	27 97       	sbiw	r28, 0x07	; 7
    1686:	0f b6       	in	r0, 0x3f	; 63
    1688:	f8 94       	cli
    168a:	de bf       	out	0x3e, r29	; 62
    168c:	0f be       	out	0x3f, r0	; 63
    168e:	cd bf       	out	0x3d, r28	; 61
    1690:	9a 83       	std	Y+2, r25	; 0x02
    1692:	89 83       	std	Y+1, r24	; 0x01
    1694:	7c 83       	std	Y+4, r23	; 0x04
    1696:	6b 83       	std	Y+3, r22	; 0x03
    1698:	5e 83       	std	Y+6, r21	; 0x06
    169a:	4d 83       	std	Y+5, r20	; 0x05
    169c:	2f 83       	std	Y+7, r18	; 0x07
	/* assign task parameters to the right array index */
	if (Copy_u8ID < OS_NUMBER_OF_TASKS)
    169e:	8f 81       	ldd	r24, Y+7	; 0x07
    16a0:	84 30       	cpi	r24, 0x04	; 4
    16a2:	08 f0       	brcs	.+2      	; 0x16a6 <OS_voidCreateTask+0x2a>
    16a4:	4a c0       	rjmp	.+148    	; 0x173a <OS_voidCreateTask+0xbe>
	{
		Global_Tasks[Copy_u8ID].FirstDelay       = Copy_u16delay    ;
    16a6:	8f 81       	ldd	r24, Y+7	; 0x07
    16a8:	28 2f       	mov	r18, r24
    16aa:	30 e0       	ldi	r19, 0x00	; 0
    16ac:	c9 01       	movw	r24, r18
    16ae:	88 0f       	add	r24, r24
    16b0:	99 1f       	adc	r25, r25
    16b2:	88 0f       	add	r24, r24
    16b4:	99 1f       	adc	r25, r25
    16b6:	88 0f       	add	r24, r24
    16b8:	99 1f       	adc	r25, r25
    16ba:	82 1b       	sub	r24, r18
    16bc:	93 0b       	sbc	r25, r19
    16be:	fc 01       	movw	r30, r24
    16c0:	e5 59       	subi	r30, 0x95	; 149
    16c2:	ff 4f       	sbci	r31, 0xFF	; 255
    16c4:	89 81       	ldd	r24, Y+1	; 0x01
    16c6:	9a 81       	ldd	r25, Y+2	; 0x02
    16c8:	91 83       	std	Z+1, r25	; 0x01
    16ca:	80 83       	st	Z, r24
		Global_Tasks[Copy_u8ID].Priodicity 		 = Copy_u16period   ;
    16cc:	8f 81       	ldd	r24, Y+7	; 0x07
    16ce:	28 2f       	mov	r18, r24
    16d0:	30 e0       	ldi	r19, 0x00	; 0
    16d2:	c9 01       	movw	r24, r18
    16d4:	88 0f       	add	r24, r24
    16d6:	99 1f       	adc	r25, r25
    16d8:	88 0f       	add	r24, r24
    16da:	99 1f       	adc	r25, r25
    16dc:	88 0f       	add	r24, r24
    16de:	99 1f       	adc	r25, r25
    16e0:	82 1b       	sub	r24, r18
    16e2:	93 0b       	sbc	r25, r19
    16e4:	fc 01       	movw	r30, r24
    16e6:	e7 59       	subi	r30, 0x97	; 151
    16e8:	ff 4f       	sbci	r31, 0xFF	; 255
    16ea:	8b 81       	ldd	r24, Y+3	; 0x03
    16ec:	9c 81       	ldd	r25, Y+4	; 0x04
    16ee:	91 83       	std	Z+1, r25	; 0x01
    16f0:	80 83       	st	Z, r24
		Global_Tasks[Copy_u8ID].Fptr   		     = Copy_voidFptr    ;
    16f2:	8f 81       	ldd	r24, Y+7	; 0x07
    16f4:	28 2f       	mov	r18, r24
    16f6:	30 e0       	ldi	r19, 0x00	; 0
    16f8:	c9 01       	movw	r24, r18
    16fa:	88 0f       	add	r24, r24
    16fc:	99 1f       	adc	r25, r25
    16fe:	88 0f       	add	r24, r24
    1700:	99 1f       	adc	r25, r25
    1702:	88 0f       	add	r24, r24
    1704:	99 1f       	adc	r25, r25
    1706:	82 1b       	sub	r24, r18
    1708:	93 0b       	sbc	r25, r19
    170a:	fc 01       	movw	r30, r24
    170c:	e3 59       	subi	r30, 0x93	; 147
    170e:	ff 4f       	sbci	r31, 0xFF	; 255
    1710:	8d 81       	ldd	r24, Y+5	; 0x05
    1712:	9e 81       	ldd	r25, Y+6	; 0x06
    1714:	91 83       	std	Z+1, r25	; 0x01
    1716:	80 83       	st	Z, r24
		Global_Tasks[Copy_u8ID].Task_state       = OS_TASK_READY    ;
    1718:	8f 81       	ldd	r24, Y+7	; 0x07
    171a:	28 2f       	mov	r18, r24
    171c:	30 e0       	ldi	r19, 0x00	; 0
    171e:	c9 01       	movw	r24, r18
    1720:	88 0f       	add	r24, r24
    1722:	99 1f       	adc	r25, r25
    1724:	88 0f       	add	r24, r24
    1726:	99 1f       	adc	r25, r25
    1728:	88 0f       	add	r24, r24
    172a:	99 1f       	adc	r25, r25
    172c:	82 1b       	sub	r24, r18
    172e:	93 0b       	sbc	r25, r19
    1730:	fc 01       	movw	r30, r24
    1732:	e8 59       	subi	r30, 0x98	; 152
    1734:	ff 4f       	sbci	r31, 0xFF	; 255
    1736:	85 e0       	ldi	r24, 0x05	; 5
    1738:	80 83       	st	Z, r24
	}
	else 
	{
		/* Return ERROR */
	}
}
    173a:	27 96       	adiw	r28, 0x07	; 7
    173c:	0f b6       	in	r0, 0x3f	; 63
    173e:	f8 94       	cli
    1740:	de bf       	out	0x3e, r29	; 62
    1742:	0f be       	out	0x3f, r0	; 63
    1744:	cd bf       	out	0x3d, r28	; 61
    1746:	cf 91       	pop	r28
    1748:	df 91       	pop	r29
    174a:	08 95       	ret

0000174c <OS_voidSuspendTask>:

/*******************************************************************************/
/* - To put the task in Suspend state 										   */
/*******************************************************************************/
void OS_voidSuspendTask(u8 Copy_u8ID)
{
    174c:	df 93       	push	r29
    174e:	cf 93       	push	r28
    1750:	0f 92       	push	r0
    1752:	cd b7       	in	r28, 0x3d	; 61
    1754:	de b7       	in	r29, 0x3e	; 62
    1756:	89 83       	std	Y+1, r24	; 0x01
	if (Global_Tasks[Copy_u8ID].Fptr != NULL)
    1758:	89 81       	ldd	r24, Y+1	; 0x01
    175a:	28 2f       	mov	r18, r24
    175c:	30 e0       	ldi	r19, 0x00	; 0
    175e:	c9 01       	movw	r24, r18
    1760:	88 0f       	add	r24, r24
    1762:	99 1f       	adc	r25, r25
    1764:	88 0f       	add	r24, r24
    1766:	99 1f       	adc	r25, r25
    1768:	88 0f       	add	r24, r24
    176a:	99 1f       	adc	r25, r25
    176c:	82 1b       	sub	r24, r18
    176e:	93 0b       	sbc	r25, r19
    1770:	fc 01       	movw	r30, r24
    1772:	e3 59       	subi	r30, 0x93	; 147
    1774:	ff 4f       	sbci	r31, 0xFF	; 255
    1776:	80 81       	ld	r24, Z
    1778:	91 81       	ldd	r25, Z+1	; 0x01
    177a:	00 97       	sbiw	r24, 0x00	; 0
    177c:	89 f0       	breq	.+34     	; 0x17a0 <OS_voidSuspendTask+0x54>
	{
		Global_Tasks[Copy_u8ID].Task_state  = OS_TASK_SUSPEND    ;
    177e:	89 81       	ldd	r24, Y+1	; 0x01
    1780:	28 2f       	mov	r18, r24
    1782:	30 e0       	ldi	r19, 0x00	; 0
    1784:	c9 01       	movw	r24, r18
    1786:	88 0f       	add	r24, r24
    1788:	99 1f       	adc	r25, r25
    178a:	88 0f       	add	r24, r24
    178c:	99 1f       	adc	r25, r25
    178e:	88 0f       	add	r24, r24
    1790:	99 1f       	adc	r25, r25
    1792:	82 1b       	sub	r24, r18
    1794:	93 0b       	sbc	r25, r19
    1796:	fc 01       	movw	r30, r24
    1798:	e8 59       	subi	r30, 0x98	; 152
    179a:	ff 4f       	sbci	r31, 0xFF	; 255
    179c:	86 e0       	ldi	r24, 0x06	; 6
    179e:	80 83       	st	Z, r24
	}
	else
	{
		/* Return ERROR */
	}
}
    17a0:	0f 90       	pop	r0
    17a2:	cf 91       	pop	r28
    17a4:	df 91       	pop	r29
    17a6:	08 95       	ret

000017a8 <OS_voidResumeTask>:

/*******************************************************************************/
/* - To put the task in Ready state 										   */
/*******************************************************************************/
void OS_voidResumeTask(u8 Copy_u8ID)
{
    17a8:	df 93       	push	r29
    17aa:	cf 93       	push	r28
    17ac:	0f 92       	push	r0
    17ae:	cd b7       	in	r28, 0x3d	; 61
    17b0:	de b7       	in	r29, 0x3e	; 62
    17b2:	89 83       	std	Y+1, r24	; 0x01
	if (Global_Tasks[Copy_u8ID].Fptr != NULL)
    17b4:	89 81       	ldd	r24, Y+1	; 0x01
    17b6:	28 2f       	mov	r18, r24
    17b8:	30 e0       	ldi	r19, 0x00	; 0
    17ba:	c9 01       	movw	r24, r18
    17bc:	88 0f       	add	r24, r24
    17be:	99 1f       	adc	r25, r25
    17c0:	88 0f       	add	r24, r24
    17c2:	99 1f       	adc	r25, r25
    17c4:	88 0f       	add	r24, r24
    17c6:	99 1f       	adc	r25, r25
    17c8:	82 1b       	sub	r24, r18
    17ca:	93 0b       	sbc	r25, r19
    17cc:	fc 01       	movw	r30, r24
    17ce:	e3 59       	subi	r30, 0x93	; 147
    17d0:	ff 4f       	sbci	r31, 0xFF	; 255
    17d2:	80 81       	ld	r24, Z
    17d4:	91 81       	ldd	r25, Z+1	; 0x01
    17d6:	00 97       	sbiw	r24, 0x00	; 0
    17d8:	89 f0       	breq	.+34     	; 0x17fc <OS_voidResumeTask+0x54>
	{
		Global_Tasks[Copy_u8ID].Task_state  = OS_TASK_READY    ;
    17da:	89 81       	ldd	r24, Y+1	; 0x01
    17dc:	28 2f       	mov	r18, r24
    17de:	30 e0       	ldi	r19, 0x00	; 0
    17e0:	c9 01       	movw	r24, r18
    17e2:	88 0f       	add	r24, r24
    17e4:	99 1f       	adc	r25, r25
    17e6:	88 0f       	add	r24, r24
    17e8:	99 1f       	adc	r25, r25
    17ea:	88 0f       	add	r24, r24
    17ec:	99 1f       	adc	r25, r25
    17ee:	82 1b       	sub	r24, r18
    17f0:	93 0b       	sbc	r25, r19
    17f2:	fc 01       	movw	r30, r24
    17f4:	e8 59       	subi	r30, 0x98	; 152
    17f6:	ff 4f       	sbci	r31, 0xFF	; 255
    17f8:	85 e0       	ldi	r24, 0x05	; 5
    17fa:	80 83       	st	Z, r24
	}
	else
	{
		/* Return ERROR */
	}
}
    17fc:	0f 90       	pop	r0
    17fe:	cf 91       	pop	r28
    1800:	df 91       	pop	r29
    1802:	08 95       	ret

00001804 <OS_voidDeleteTask>:

/*******************************************************************************/
/* - To delete the task in Suspend state 									   */
/*******************************************************************************/
void OS_voidDeleteTask(u8 Copy_u8ID)
{
    1804:	df 93       	push	r29
    1806:	cf 93       	push	r28
    1808:	0f 92       	push	r0
    180a:	cd b7       	in	r28, 0x3d	; 61
    180c:	de b7       	in	r29, 0x3e	; 62
    180e:	89 83       	std	Y+1, r24	; 0x01
	if (Global_Tasks[Copy_u8ID].Fptr != NULL)
    1810:	89 81       	ldd	r24, Y+1	; 0x01
    1812:	28 2f       	mov	r18, r24
    1814:	30 e0       	ldi	r19, 0x00	; 0
    1816:	c9 01       	movw	r24, r18
    1818:	88 0f       	add	r24, r24
    181a:	99 1f       	adc	r25, r25
    181c:	88 0f       	add	r24, r24
    181e:	99 1f       	adc	r25, r25
    1820:	88 0f       	add	r24, r24
    1822:	99 1f       	adc	r25, r25
    1824:	82 1b       	sub	r24, r18
    1826:	93 0b       	sbc	r25, r19
    1828:	fc 01       	movw	r30, r24
    182a:	e3 59       	subi	r30, 0x93	; 147
    182c:	ff 4f       	sbci	r31, 0xFF	; 255
    182e:	80 81       	ld	r24, Z
    1830:	91 81       	ldd	r25, Z+1	; 0x01
    1832:	00 97       	sbiw	r24, 0x00	; 0
    1834:	99 f1       	breq	.+102    	; 0x189c <OS_voidDeleteTask+0x98>
	{
		Global_Tasks[Copy_u8ID].FirstDelay       = 0    			;
    1836:	89 81       	ldd	r24, Y+1	; 0x01
    1838:	28 2f       	mov	r18, r24
    183a:	30 e0       	ldi	r19, 0x00	; 0
    183c:	c9 01       	movw	r24, r18
    183e:	88 0f       	add	r24, r24
    1840:	99 1f       	adc	r25, r25
    1842:	88 0f       	add	r24, r24
    1844:	99 1f       	adc	r25, r25
    1846:	88 0f       	add	r24, r24
    1848:	99 1f       	adc	r25, r25
    184a:	82 1b       	sub	r24, r18
    184c:	93 0b       	sbc	r25, r19
    184e:	fc 01       	movw	r30, r24
    1850:	e5 59       	subi	r30, 0x95	; 149
    1852:	ff 4f       	sbci	r31, 0xFF	; 255
    1854:	11 82       	std	Z+1, r1	; 0x01
    1856:	10 82       	st	Z, r1
		Global_Tasks[Copy_u8ID].Fptr   		     = NULL    			;
    1858:	89 81       	ldd	r24, Y+1	; 0x01
    185a:	28 2f       	mov	r18, r24
    185c:	30 e0       	ldi	r19, 0x00	; 0
    185e:	c9 01       	movw	r24, r18
    1860:	88 0f       	add	r24, r24
    1862:	99 1f       	adc	r25, r25
    1864:	88 0f       	add	r24, r24
    1866:	99 1f       	adc	r25, r25
    1868:	88 0f       	add	r24, r24
    186a:	99 1f       	adc	r25, r25
    186c:	82 1b       	sub	r24, r18
    186e:	93 0b       	sbc	r25, r19
    1870:	fc 01       	movw	r30, r24
    1872:	e3 59       	subi	r30, 0x93	; 147
    1874:	ff 4f       	sbci	r31, 0xFF	; 255
    1876:	11 82       	std	Z+1, r1	; 0x01
    1878:	10 82       	st	Z, r1
		Global_Tasks[Copy_u8ID].Priodicity 		 = 0   				;
    187a:	89 81       	ldd	r24, Y+1	; 0x01
    187c:	28 2f       	mov	r18, r24
    187e:	30 e0       	ldi	r19, 0x00	; 0
    1880:	c9 01       	movw	r24, r18
    1882:	88 0f       	add	r24, r24
    1884:	99 1f       	adc	r25, r25
    1886:	88 0f       	add	r24, r24
    1888:	99 1f       	adc	r25, r25
    188a:	88 0f       	add	r24, r24
    188c:	99 1f       	adc	r25, r25
    188e:	82 1b       	sub	r24, r18
    1890:	93 0b       	sbc	r25, r19
    1892:	fc 01       	movw	r30, r24
    1894:	e7 59       	subi	r30, 0x97	; 151
    1896:	ff 4f       	sbci	r31, 0xFF	; 255
    1898:	11 82       	std	Z+1, r1	; 0x01
    189a:	10 82       	st	Z, r1
	}
	else 
	{
		/* Return ERROR */
	}
}
    189c:	0f 90       	pop	r0
    189e:	cf 91       	pop	r28
    18a0:	df 91       	pop	r29
    18a2:	08 95       	ret

000018a4 <voidScheduler>:


/*******************************************************************************/
/****************************** Private Functions ******************************/
static void voidScheduler(void)
{
    18a4:	df 93       	push	r29
    18a6:	cf 93       	push	r28
    18a8:	0f 92       	push	r0
    18aa:	cd b7       	in	r28, 0x3d	; 61
    18ac:	de b7       	in	r29, 0x3e	; 62
/***************************  Co-operative scheduling  *************************/
	for (u8 i = 0; i < OS_NUMBER_OF_TASKS ; i++)
    18ae:	19 82       	std	Y+1, r1	; 0x01
    18b0:	9b c0       	rjmp	.+310    	; 0x19e8 <voidScheduler+0x144>
	{
		if ( (Global_Tasks[i].Fptr != NULL) && (Global_Tasks[i].Task_state == OS_TASK_READY) )
    18b2:	89 81       	ldd	r24, Y+1	; 0x01
    18b4:	28 2f       	mov	r18, r24
    18b6:	30 e0       	ldi	r19, 0x00	; 0
    18b8:	c9 01       	movw	r24, r18
    18ba:	88 0f       	add	r24, r24
    18bc:	99 1f       	adc	r25, r25
    18be:	88 0f       	add	r24, r24
    18c0:	99 1f       	adc	r25, r25
    18c2:	88 0f       	add	r24, r24
    18c4:	99 1f       	adc	r25, r25
    18c6:	82 1b       	sub	r24, r18
    18c8:	93 0b       	sbc	r25, r19
    18ca:	fc 01       	movw	r30, r24
    18cc:	e3 59       	subi	r30, 0x93	; 147
    18ce:	ff 4f       	sbci	r31, 0xFF	; 255
    18d0:	80 81       	ld	r24, Z
    18d2:	91 81       	ldd	r25, Z+1	; 0x01
    18d4:	00 97       	sbiw	r24, 0x00	; 0
    18d6:	09 f4       	brne	.+2      	; 0x18da <voidScheduler+0x36>
    18d8:	84 c0       	rjmp	.+264    	; 0x19e2 <voidScheduler+0x13e>
    18da:	89 81       	ldd	r24, Y+1	; 0x01
    18dc:	28 2f       	mov	r18, r24
    18de:	30 e0       	ldi	r19, 0x00	; 0
    18e0:	c9 01       	movw	r24, r18
    18e2:	88 0f       	add	r24, r24
    18e4:	99 1f       	adc	r25, r25
    18e6:	88 0f       	add	r24, r24
    18e8:	99 1f       	adc	r25, r25
    18ea:	88 0f       	add	r24, r24
    18ec:	99 1f       	adc	r25, r25
    18ee:	82 1b       	sub	r24, r18
    18f0:	93 0b       	sbc	r25, r19
    18f2:	fc 01       	movw	r30, r24
    18f4:	e8 59       	subi	r30, 0x98	; 152
    18f6:	ff 4f       	sbci	r31, 0xFF	; 255
    18f8:	80 81       	ld	r24, Z
    18fa:	85 30       	cpi	r24, 0x05	; 5
    18fc:	09 f0       	breq	.+2      	; 0x1900 <voidScheduler+0x5c>
    18fe:	71 c0       	rjmp	.+226    	; 0x19e2 <voidScheduler+0x13e>
		{
			/* Time of the task has come */
			if ( Global_Tasks[i].FirstDelay == 0)
    1900:	89 81       	ldd	r24, Y+1	; 0x01
    1902:	28 2f       	mov	r18, r24
    1904:	30 e0       	ldi	r19, 0x00	; 0
    1906:	c9 01       	movw	r24, r18
    1908:	88 0f       	add	r24, r24
    190a:	99 1f       	adc	r25, r25
    190c:	88 0f       	add	r24, r24
    190e:	99 1f       	adc	r25, r25
    1910:	88 0f       	add	r24, r24
    1912:	99 1f       	adc	r25, r25
    1914:	82 1b       	sub	r24, r18
    1916:	93 0b       	sbc	r25, r19
    1918:	fc 01       	movw	r30, r24
    191a:	e5 59       	subi	r30, 0x95	; 149
    191c:	ff 4f       	sbci	r31, 0xFF	; 255
    191e:	80 81       	ld	r24, Z
    1920:	91 81       	ldd	r25, Z+1	; 0x01
    1922:	00 97       	sbiw	r24, 0x00	; 0
    1924:	c9 f5       	brne	.+114    	; 0x1998 <voidScheduler+0xf4>
			{
					Global_Tasks[i].FirstDelay = Global_Tasks[i].Priodicity - OS_TICK_TIME ;
    1926:	89 81       	ldd	r24, Y+1	; 0x01
    1928:	48 2f       	mov	r20, r24
    192a:	50 e0       	ldi	r21, 0x00	; 0
    192c:	89 81       	ldd	r24, Y+1	; 0x01
    192e:	28 2f       	mov	r18, r24
    1930:	30 e0       	ldi	r19, 0x00	; 0
    1932:	c9 01       	movw	r24, r18
    1934:	88 0f       	add	r24, r24
    1936:	99 1f       	adc	r25, r25
    1938:	88 0f       	add	r24, r24
    193a:	99 1f       	adc	r25, r25
    193c:	88 0f       	add	r24, r24
    193e:	99 1f       	adc	r25, r25
    1940:	82 1b       	sub	r24, r18
    1942:	93 0b       	sbc	r25, r19
    1944:	fc 01       	movw	r30, r24
    1946:	e7 59       	subi	r30, 0x97	; 151
    1948:	ff 4f       	sbci	r31, 0xFF	; 255
    194a:	80 81       	ld	r24, Z
    194c:	91 81       	ldd	r25, Z+1	; 0x01
    194e:	9c 01       	movw	r18, r24
    1950:	28 5e       	subi	r18, 0xE8	; 232
    1952:	33 40       	sbci	r19, 0x03	; 3
    1954:	ca 01       	movw	r24, r20
    1956:	88 0f       	add	r24, r24
    1958:	99 1f       	adc	r25, r25
    195a:	88 0f       	add	r24, r24
    195c:	99 1f       	adc	r25, r25
    195e:	88 0f       	add	r24, r24
    1960:	99 1f       	adc	r25, r25
    1962:	84 1b       	sub	r24, r20
    1964:	95 0b       	sbc	r25, r21
    1966:	fc 01       	movw	r30, r24
    1968:	e5 59       	subi	r30, 0x95	; 149
    196a:	ff 4f       	sbci	r31, 0xFF	; 255
    196c:	31 83       	std	Z+1, r19	; 0x01
    196e:	20 83       	st	Z, r18
					Global_Tasks[i].Fptr();
    1970:	89 81       	ldd	r24, Y+1	; 0x01
    1972:	28 2f       	mov	r18, r24
    1974:	30 e0       	ldi	r19, 0x00	; 0
    1976:	c9 01       	movw	r24, r18
    1978:	88 0f       	add	r24, r24
    197a:	99 1f       	adc	r25, r25
    197c:	88 0f       	add	r24, r24
    197e:	99 1f       	adc	r25, r25
    1980:	88 0f       	add	r24, r24
    1982:	99 1f       	adc	r25, r25
    1984:	82 1b       	sub	r24, r18
    1986:	93 0b       	sbc	r25, r19
    1988:	fc 01       	movw	r30, r24
    198a:	e3 59       	subi	r30, 0x93	; 147
    198c:	ff 4f       	sbci	r31, 0xFF	; 255
    198e:	01 90       	ld	r0, Z+
    1990:	f0 81       	ld	r31, Z
    1992:	e0 2d       	mov	r30, r0
    1994:	09 95       	icall
    1996:	25 c0       	rjmp	.+74     	; 0x19e2 <voidScheduler+0x13e>
			}
			else
			{
				Global_Tasks[i].FirstDelay -= OS_TICK_TIME ;
    1998:	89 81       	ldd	r24, Y+1	; 0x01
    199a:	48 2f       	mov	r20, r24
    199c:	50 e0       	ldi	r21, 0x00	; 0
    199e:	89 81       	ldd	r24, Y+1	; 0x01
    19a0:	28 2f       	mov	r18, r24
    19a2:	30 e0       	ldi	r19, 0x00	; 0
    19a4:	c9 01       	movw	r24, r18
    19a6:	88 0f       	add	r24, r24
    19a8:	99 1f       	adc	r25, r25
    19aa:	88 0f       	add	r24, r24
    19ac:	99 1f       	adc	r25, r25
    19ae:	88 0f       	add	r24, r24
    19b0:	99 1f       	adc	r25, r25
    19b2:	82 1b       	sub	r24, r18
    19b4:	93 0b       	sbc	r25, r19
    19b6:	fc 01       	movw	r30, r24
    19b8:	e5 59       	subi	r30, 0x95	; 149
    19ba:	ff 4f       	sbci	r31, 0xFF	; 255
    19bc:	80 81       	ld	r24, Z
    19be:	91 81       	ldd	r25, Z+1	; 0x01
    19c0:	9c 01       	movw	r18, r24
    19c2:	28 5e       	subi	r18, 0xE8	; 232
    19c4:	33 40       	sbci	r19, 0x03	; 3
    19c6:	ca 01       	movw	r24, r20
    19c8:	88 0f       	add	r24, r24
    19ca:	99 1f       	adc	r25, r25
    19cc:	88 0f       	add	r24, r24
    19ce:	99 1f       	adc	r25, r25
    19d0:	88 0f       	add	r24, r24
    19d2:	99 1f       	adc	r25, r25
    19d4:	84 1b       	sub	r24, r20
    19d6:	95 0b       	sbc	r25, r21
    19d8:	fc 01       	movw	r30, r24
    19da:	e5 59       	subi	r30, 0x95	; 149
    19dc:	ff 4f       	sbci	r31, 0xFF	; 255
    19de:	31 83       	std	Z+1, r19	; 0x01
    19e0:	20 83       	st	Z, r18
/*******************************************************************************/
/****************************** Private Functions ******************************/
static void voidScheduler(void)
{
/***************************  Co-operative scheduling  *************************/
	for (u8 i = 0; i < OS_NUMBER_OF_TASKS ; i++)
    19e2:	89 81       	ldd	r24, Y+1	; 0x01
    19e4:	8f 5f       	subi	r24, 0xFF	; 255
    19e6:	89 83       	std	Y+1, r24	; 0x01
    19e8:	89 81       	ldd	r24, Y+1	; 0x01
    19ea:	84 30       	cpi	r24, 0x04	; 4
    19ec:	08 f4       	brcc	.+2      	; 0x19f0 <voidScheduler+0x14c>
    19ee:	61 cf       	rjmp	.-318    	; 0x18b2 <voidScheduler+0xe>
		else
		{
			/* Return ERROR */
		}
	}
}
    19f0:	0f 90       	pop	r0
    19f2:	cf 91       	pop	r28
    19f4:	df 91       	pop	r29
    19f6:	08 95       	ret

000019f8 <M_TIMER0_voidInit>:
u32 Global_u32Number_Of_Overflow = 0;
u8 Global_u8RemainingTime = 0;
TIMER0_GLOBAL_t TIM0_GLOBAL_FUN = TIMER0_NO_OPERATION ;
/*******************************************************************************/
void M_TIMER0_voidInit(void)
{
    19f8:	df 93       	push	r29
    19fa:	cf 93       	push	r28
    19fc:	cd b7       	in	r28, 0x3d	; 61
    19fe:	de b7       	in	r29, 0x3e	; 62
	/******* Waveform Generation Mode ********/
	TIMER0->TCCR0 &= TIMER0_MODE_MASKING ;
    1a00:	a0 e5       	ldi	r26, 0x50	; 80
    1a02:	b0 e0       	ldi	r27, 0x00	; 0
    1a04:	e0 e5       	ldi	r30, 0x50	; 80
    1a06:	f0 e0       	ldi	r31, 0x00	; 0
    1a08:	83 81       	ldd	r24, Z+3	; 0x03
    1a0a:	87 7b       	andi	r24, 0xB7	; 183
    1a0c:	13 96       	adiw	r26, 0x03	; 3
    1a0e:	8c 93       	st	X, r24
	TIMER0->TCCR0 |= (TIMER0_MODE << 3)  ;
    1a10:	a0 e5       	ldi	r26, 0x50	; 80
    1a12:	b0 e0       	ldi	r27, 0x00	; 0
    1a14:	e0 e5       	ldi	r30, 0x50	; 80
    1a16:	f0 e0       	ldi	r31, 0x00	; 0
    1a18:	83 81       	ldd	r24, Z+3	; 0x03
    1a1a:	13 96       	adiw	r26, 0x03	; 3
    1a1c:	8c 93       	st	X, r24


	/********* Compare Output Mode  **********/
	TIMER0->TCCR0 &= TIMER0_OC0_MASKING 				;
    1a1e:	a0 e5       	ldi	r26, 0x50	; 80
    1a20:	b0 e0       	ldi	r27, 0x00	; 0
    1a22:	e0 e5       	ldi	r30, 0x50	; 80
    1a24:	f0 e0       	ldi	r31, 0x00	; 0
    1a26:	83 81       	ldd	r24, Z+3	; 0x03
    1a28:	8f 7c       	andi	r24, 0xCF	; 207
    1a2a:	13 96       	adiw	r26, 0x03	; 3
    1a2c:	8c 93       	st	X, r24
	TIMER0->TCCR0 |= (TIMER0_COMPARE_MATCH_MODE << 4)  	;
    1a2e:	a0 e5       	ldi	r26, 0x50	; 80
    1a30:	b0 e0       	ldi	r27, 0x00	; 0
    1a32:	e0 e5       	ldi	r30, 0x50	; 80
    1a34:	f0 e0       	ldi	r31, 0x00	; 0
    1a36:	83 81       	ldd	r24, Z+3	; 0x03
    1a38:	13 96       	adiw	r26, 0x03	; 3
    1a3a:	8c 93       	st	X, r24
    1a3c:	13 97       	sbiw	r26, 0x03	; 3

}
    1a3e:	cf 91       	pop	r28
    1a40:	df 91       	pop	r29
    1a42:	08 95       	ret

00001a44 <M_TIMER0_voidStart>:
/*******************************************************************************/
void M_TIMER0_voidStart(void)
{
    1a44:	df 93       	push	r29
    1a46:	cf 93       	push	r28
    1a48:	cd b7       	in	r28, 0x3d	; 61
    1a4a:	de b7       	in	r29, 0x3e	; 62
	/************ Prescaler Options **********/
	TIMER0->TCCR0 &= TIMER0_PRESCALER_MASKING 			;
    1a4c:	a0 e5       	ldi	r26, 0x50	; 80
    1a4e:	b0 e0       	ldi	r27, 0x00	; 0
    1a50:	e0 e5       	ldi	r30, 0x50	; 80
    1a52:	f0 e0       	ldi	r31, 0x00	; 0
    1a54:	83 81       	ldd	r24, Z+3	; 0x03
    1a56:	88 7f       	andi	r24, 0xF8	; 248
    1a58:	13 96       	adiw	r26, 0x03	; 3
    1a5a:	8c 93       	st	X, r24
	TIMER0->TCCR0 |= TIMER0_PRESCALER  					;
    1a5c:	a0 e5       	ldi	r26, 0x50	; 80
    1a5e:	b0 e0       	ldi	r27, 0x00	; 0
    1a60:	e0 e5       	ldi	r30, 0x50	; 80
    1a62:	f0 e0       	ldi	r31, 0x00	; 0
    1a64:	83 81       	ldd	r24, Z+3	; 0x03
    1a66:	81 60       	ori	r24, 0x01	; 1
    1a68:	13 96       	adiw	r26, 0x03	; 3
    1a6a:	8c 93       	st	X, r24
    1a6c:	13 97       	sbiw	r26, 0x03	; 3
}
    1a6e:	cf 91       	pop	r28
    1a70:	df 91       	pop	r29
    1a72:	08 95       	ret

00001a74 <M_TIMER0_voidStop>:
/*******************************************************************************/
void M_TIMER0_voidStop(void)
{
    1a74:	df 93       	push	r29
    1a76:	cf 93       	push	r28
    1a78:	cd b7       	in	r28, 0x3d	; 61
    1a7a:	de b7       	in	r29, 0x3e	; 62
	TIMER0->TCCR0 &= TIMER0_PRESCALER_MASKING 			;
    1a7c:	a0 e5       	ldi	r26, 0x50	; 80
    1a7e:	b0 e0       	ldi	r27, 0x00	; 0
    1a80:	e0 e5       	ldi	r30, 0x50	; 80
    1a82:	f0 e0       	ldi	r31, 0x00	; 0
    1a84:	83 81       	ldd	r24, Z+3	; 0x03
    1a86:	88 7f       	andi	r24, 0xF8	; 248
    1a88:	13 96       	adiw	r26, 0x03	; 3
    1a8a:	8c 93       	st	X, r24
	TIMER0->TCCR0 |= TIMER0_NO_CLK  					;
    1a8c:	a0 e5       	ldi	r26, 0x50	; 80
    1a8e:	b0 e0       	ldi	r27, 0x00	; 0
    1a90:	e0 e5       	ldi	r30, 0x50	; 80
    1a92:	f0 e0       	ldi	r31, 0x00	; 0
    1a94:	83 81       	ldd	r24, Z+3	; 0x03
    1a96:	13 96       	adiw	r26, 0x03	; 3
    1a98:	8c 93       	st	X, r24
    1a9a:	13 97       	sbiw	r26, 0x03	; 3
}
    1a9c:	cf 91       	pop	r28
    1a9e:	df 91       	pop	r29
    1aa0:	08 95       	ret

00001aa2 <M_TIMER0_voidSetBusyWait>:
/*******************************************************************************/
void M_TIMER0_voidSetBusyWait(u32 Copy_u32Time, TIMER0_TIME_t Copy_timeUnit)
{
    1aa2:	df 93       	push	r29
    1aa4:	cf 93       	push	r28
    1aa6:	cd b7       	in	r28, 0x3d	; 61
    1aa8:	de b7       	in	r29, 0x3e	; 62
    1aaa:	2f 97       	sbiw	r28, 0x0f	; 15
    1aac:	0f b6       	in	r0, 0x3f	; 63
    1aae:	f8 94       	cli
    1ab0:	de bf       	out	0x3e, r29	; 62
    1ab2:	0f be       	out	0x3f, r0	; 63
    1ab4:	cd bf       	out	0x3d, r28	; 61
    1ab6:	69 87       	std	Y+9, r22	; 0x09
    1ab8:	7a 87       	std	Y+10, r23	; 0x0a
    1aba:	8b 87       	std	Y+11, r24	; 0x0b
    1abc:	9c 87       	std	Y+12, r25	; 0x0c
    1abe:	4d 87       	std	Y+13, r20	; 0x0d
	TIM0_GLOBAL_FUN = TIMER0_BUSY_WAIT_FUNCTION;
    1ac0:	10 92 60 00 	sts	0x0060, r1
	M_TIMER0_voidInterrupt_Disable(TIMER0_OVERFLOW_INTERRUPT);
    1ac4:	81 e0       	ldi	r24, 0x01	; 1
    1ac6:	0e 94 c9 0f 	call	0x1f92	; 0x1f92 <M_TIMER0_voidInterrupt_Disable>

	u32 Local_u32Load = 0;
    1aca:	1d 82       	std	Y+5, r1	; 0x05
    1acc:	1e 82       	std	Y+6, r1	; 0x06
    1ace:	1f 82       	std	Y+7, r1	; 0x07
    1ad0:	18 86       	std	Y+8, r1	; 0x08
	u32 Timer0_CLK = 0 ;
    1ad2:	19 82       	std	Y+1, r1	; 0x01
    1ad4:	1a 82       	std	Y+2, r1	; 0x02
    1ad6:	1b 82       	std	Y+3, r1	; 0x03
    1ad8:	1c 82       	std	Y+4, r1	; 0x04
	#if TIMER0_PRESCALER   == TIMER0_NO_CLK
		Timer0_CLK = 0 ;
	#elif TIMER0_PRESCALER == TIMER0_PRESCALER_1
		Timer0_CLK = SYSTEM_CLOCK_SOURCE ;
    1ada:	80 e0       	ldi	r24, 0x00	; 0
    1adc:	94 e2       	ldi	r25, 0x24	; 36
    1ade:	a4 ef       	ldi	r26, 0xF4	; 244
    1ae0:	b0 e0       	ldi	r27, 0x00	; 0
    1ae2:	89 83       	std	Y+1, r24	; 0x01
    1ae4:	9a 83       	std	Y+2, r25	; 0x02
    1ae6:	ab 83       	std	Y+3, r26	; 0x03
    1ae8:	bc 83       	std	Y+4, r27	; 0x04
	#else
		#error (" Configuration error")
	#endif
	
		/* Calculate */
		switch(Copy_timeUnit)
    1aea:	8d 85       	ldd	r24, Y+13	; 0x0d
    1aec:	28 2f       	mov	r18, r24
    1aee:	30 e0       	ldi	r19, 0x00	; 0
    1af0:	3f 87       	std	Y+15, r19	; 0x0f
    1af2:	2e 87       	std	Y+14, r18	; 0x0e
    1af4:	8e 85       	ldd	r24, Y+14	; 0x0e
    1af6:	9f 85       	ldd	r25, Y+15	; 0x0f
    1af8:	81 30       	cpi	r24, 0x01	; 1
    1afa:	91 05       	cpc	r25, r1
    1afc:	09 f4       	brne	.+2      	; 0x1b00 <M_TIMER0_voidSetBusyWait+0x5e>
    1afe:	4e c0       	rjmp	.+156    	; 0x1b9c <M_TIMER0_voidSetBusyWait+0xfa>
    1b00:	2e 85       	ldd	r18, Y+14	; 0x0e
    1b02:	3f 85       	ldd	r19, Y+15	; 0x0f
    1b04:	22 30       	cpi	r18, 0x02	; 2
    1b06:	31 05       	cpc	r19, r1
    1b08:	09 f4       	brne	.+2      	; 0x1b0c <M_TIMER0_voidSetBusyWait+0x6a>
    1b0a:	95 c0       	rjmp	.+298    	; 0x1c36 <M_TIMER0_voidSetBusyWait+0x194>
    1b0c:	8e 85       	ldd	r24, Y+14	; 0x0e
    1b0e:	9f 85       	ldd	r25, Y+15	; 0x0f
    1b10:	00 97       	sbiw	r24, 0x00	; 0
    1b12:	09 f0       	breq	.+2      	; 0x1b16 <M_TIMER0_voidSetBusyWait+0x74>
    1b14:	dc c0       	rjmp	.+440    	; 0x1cce <M_TIMER0_voidSetBusyWait+0x22c>
		{
			/*----------------------------------------------------------------------------------*/
			case TIME_S :
					Local_u32Load = Copy_u32Time * Timer0_CLK ;
    1b16:	89 85       	ldd	r24, Y+9	; 0x09
    1b18:	9a 85       	ldd	r25, Y+10	; 0x0a
    1b1a:	ab 85       	ldd	r26, Y+11	; 0x0b
    1b1c:	bc 85       	ldd	r27, Y+12	; 0x0c
    1b1e:	29 81       	ldd	r18, Y+1	; 0x01
    1b20:	3a 81       	ldd	r19, Y+2	; 0x02
    1b22:	4b 81       	ldd	r20, Y+3	; 0x03
    1b24:	5c 81       	ldd	r21, Y+4	; 0x04
    1b26:	bc 01       	movw	r22, r24
    1b28:	cd 01       	movw	r24, r26
    1b2a:	0e 94 97 11 	call	0x232e	; 0x232e <__mulsi3>
    1b2e:	dc 01       	movw	r26, r24
    1b30:	cb 01       	movw	r24, r22
    1b32:	8d 83       	std	Y+5, r24	; 0x05
    1b34:	9e 83       	std	Y+6, r25	; 0x06
    1b36:	af 83       	std	Y+7, r26	; 0x07
    1b38:	b8 87       	std	Y+8, r27	; 0x08
					Global_u32Number_Of_Overflow = Local_u32Load / TIMER0_MAXIMUM_VALUE ;
    1b3a:	8d 81       	ldd	r24, Y+5	; 0x05
    1b3c:	9e 81       	ldd	r25, Y+6	; 0x06
    1b3e:	af 81       	ldd	r26, Y+7	; 0x07
    1b40:	b8 85       	ldd	r27, Y+8	; 0x08
    1b42:	2f ef       	ldi	r18, 0xFF	; 255
    1b44:	30 e0       	ldi	r19, 0x00	; 0
    1b46:	40 e0       	ldi	r20, 0x00	; 0
    1b48:	50 e0       	ldi	r21, 0x00	; 0
    1b4a:	bc 01       	movw	r22, r24
    1b4c:	cd 01       	movw	r24, r26
    1b4e:	0e 94 b6 11 	call	0x236c	; 0x236c <__udivmodsi4>
    1b52:	da 01       	movw	r26, r20
    1b54:	c9 01       	movw	r24, r18
    1b56:	80 93 84 00 	sts	0x0084, r24
    1b5a:	90 93 85 00 	sts	0x0085, r25
    1b5e:	a0 93 86 00 	sts	0x0086, r26
    1b62:	b0 93 87 00 	sts	0x0087, r27
					Global_u8RemainingTime       = Local_u32Load % TIMER0_MAXIMUM_VALUE;
    1b66:	8d 81       	ldd	r24, Y+5	; 0x05
    1b68:	9e 81       	ldd	r25, Y+6	; 0x06
    1b6a:	af 81       	ldd	r26, Y+7	; 0x07
    1b6c:	b8 85       	ldd	r27, Y+8	; 0x08
    1b6e:	2f ef       	ldi	r18, 0xFF	; 255
    1b70:	30 e0       	ldi	r19, 0x00	; 0
    1b72:	40 e0       	ldi	r20, 0x00	; 0
    1b74:	50 e0       	ldi	r21, 0x00	; 0
    1b76:	bc 01       	movw	r22, r24
    1b78:	cd 01       	movw	r24, r26
    1b7a:	0e 94 b6 11 	call	0x236c	; 0x236c <__udivmodsi4>
    1b7e:	dc 01       	movw	r26, r24
    1b80:	cb 01       	movw	r24, r22
    1b82:	80 93 88 00 	sts	0x0088, r24
					Global_u8RemainingTime       = (TIMER0_MAXIMUM_VALUE - Global_u8RemainingTime);
    1b86:	80 91 88 00 	lds	r24, 0x0088
    1b8a:	80 95       	com	r24
    1b8c:	80 93 88 00 	sts	0x0088, r24
					TIMER0->TCNT0 = Global_u8RemainingTime ;
    1b90:	e0 e5       	ldi	r30, 0x50	; 80
    1b92:	f0 e0       	ldi	r31, 0x00	; 0
    1b94:	80 91 88 00 	lds	r24, 0x0088
    1b98:	82 83       	std	Z+2, r24	; 0x02
    1b9a:	99 c0       	rjmp	.+306    	; 0x1cce <M_TIMER0_voidSetBusyWait+0x22c>
	 				break;
			/*----------------------------------------------------------------------------------*/
			case TIME_MS :
					Local_u32Load = Copy_u32Time * (Timer0_CLK / 1000) ;
    1b9c:	89 81       	ldd	r24, Y+1	; 0x01
    1b9e:	9a 81       	ldd	r25, Y+2	; 0x02
    1ba0:	ab 81       	ldd	r26, Y+3	; 0x03
    1ba2:	bc 81       	ldd	r27, Y+4	; 0x04
    1ba4:	28 ee       	ldi	r18, 0xE8	; 232
    1ba6:	33 e0       	ldi	r19, 0x03	; 3
    1ba8:	40 e0       	ldi	r20, 0x00	; 0
    1baa:	50 e0       	ldi	r21, 0x00	; 0
    1bac:	bc 01       	movw	r22, r24
    1bae:	cd 01       	movw	r24, r26
    1bb0:	0e 94 b6 11 	call	0x236c	; 0x236c <__udivmodsi4>
    1bb4:	da 01       	movw	r26, r20
    1bb6:	c9 01       	movw	r24, r18
    1bb8:	29 85       	ldd	r18, Y+9	; 0x09
    1bba:	3a 85       	ldd	r19, Y+10	; 0x0a
    1bbc:	4b 85       	ldd	r20, Y+11	; 0x0b
    1bbe:	5c 85       	ldd	r21, Y+12	; 0x0c
    1bc0:	bc 01       	movw	r22, r24
    1bc2:	cd 01       	movw	r24, r26
    1bc4:	0e 94 97 11 	call	0x232e	; 0x232e <__mulsi3>
    1bc8:	dc 01       	movw	r26, r24
    1bca:	cb 01       	movw	r24, r22
    1bcc:	8d 83       	std	Y+5, r24	; 0x05
    1bce:	9e 83       	std	Y+6, r25	; 0x06
    1bd0:	af 83       	std	Y+7, r26	; 0x07
    1bd2:	b8 87       	std	Y+8, r27	; 0x08
					Global_u32Number_Of_Overflow = Local_u32Load / TIMER0_MAXIMUM_VALUE ;
    1bd4:	8d 81       	ldd	r24, Y+5	; 0x05
    1bd6:	9e 81       	ldd	r25, Y+6	; 0x06
    1bd8:	af 81       	ldd	r26, Y+7	; 0x07
    1bda:	b8 85       	ldd	r27, Y+8	; 0x08
    1bdc:	2f ef       	ldi	r18, 0xFF	; 255
    1bde:	30 e0       	ldi	r19, 0x00	; 0
    1be0:	40 e0       	ldi	r20, 0x00	; 0
    1be2:	50 e0       	ldi	r21, 0x00	; 0
    1be4:	bc 01       	movw	r22, r24
    1be6:	cd 01       	movw	r24, r26
    1be8:	0e 94 b6 11 	call	0x236c	; 0x236c <__udivmodsi4>
    1bec:	da 01       	movw	r26, r20
    1bee:	c9 01       	movw	r24, r18
    1bf0:	80 93 84 00 	sts	0x0084, r24
    1bf4:	90 93 85 00 	sts	0x0085, r25
    1bf8:	a0 93 86 00 	sts	0x0086, r26
    1bfc:	b0 93 87 00 	sts	0x0087, r27
					Global_u8RemainingTime       = Local_u32Load % TIMER0_MAXIMUM_VALUE;
    1c00:	8d 81       	ldd	r24, Y+5	; 0x05
    1c02:	9e 81       	ldd	r25, Y+6	; 0x06
    1c04:	af 81       	ldd	r26, Y+7	; 0x07
    1c06:	b8 85       	ldd	r27, Y+8	; 0x08
    1c08:	2f ef       	ldi	r18, 0xFF	; 255
    1c0a:	30 e0       	ldi	r19, 0x00	; 0
    1c0c:	40 e0       	ldi	r20, 0x00	; 0
    1c0e:	50 e0       	ldi	r21, 0x00	; 0
    1c10:	bc 01       	movw	r22, r24
    1c12:	cd 01       	movw	r24, r26
    1c14:	0e 94 b6 11 	call	0x236c	; 0x236c <__udivmodsi4>
    1c18:	dc 01       	movw	r26, r24
    1c1a:	cb 01       	movw	r24, r22
    1c1c:	80 93 88 00 	sts	0x0088, r24
					Global_u8RemainingTime       = (TIMER0_MAXIMUM_VALUE - Global_u8RemainingTime);
    1c20:	80 91 88 00 	lds	r24, 0x0088
    1c24:	80 95       	com	r24
    1c26:	80 93 88 00 	sts	0x0088, r24
					TIMER0->TCNT0 = Global_u8RemainingTime ;
    1c2a:	e0 e5       	ldi	r30, 0x50	; 80
    1c2c:	f0 e0       	ldi	r31, 0x00	; 0
    1c2e:	80 91 88 00 	lds	r24, 0x0088
    1c32:	82 83       	std	Z+2, r24	; 0x02
    1c34:	4c c0       	rjmp	.+152    	; 0x1cce <M_TIMER0_voidSetBusyWait+0x22c>
	 				break;
			/*----------------------------------------------------------------------------------*/
			case TIME_US :
					Local_u32Load = Copy_u32Time * (Timer0_CLK / 1000000) ;
    1c36:	89 81       	ldd	r24, Y+1	; 0x01
    1c38:	9a 81       	ldd	r25, Y+2	; 0x02
    1c3a:	ab 81       	ldd	r26, Y+3	; 0x03
    1c3c:	bc 81       	ldd	r27, Y+4	; 0x04
    1c3e:	20 e4       	ldi	r18, 0x40	; 64
    1c40:	32 e4       	ldi	r19, 0x42	; 66
    1c42:	4f e0       	ldi	r20, 0x0F	; 15
    1c44:	50 e0       	ldi	r21, 0x00	; 0
    1c46:	bc 01       	movw	r22, r24
    1c48:	cd 01       	movw	r24, r26
    1c4a:	0e 94 b6 11 	call	0x236c	; 0x236c <__udivmodsi4>
    1c4e:	da 01       	movw	r26, r20
    1c50:	c9 01       	movw	r24, r18
    1c52:	29 85       	ldd	r18, Y+9	; 0x09
    1c54:	3a 85       	ldd	r19, Y+10	; 0x0a
    1c56:	4b 85       	ldd	r20, Y+11	; 0x0b
    1c58:	5c 85       	ldd	r21, Y+12	; 0x0c
    1c5a:	bc 01       	movw	r22, r24
    1c5c:	cd 01       	movw	r24, r26
    1c5e:	0e 94 97 11 	call	0x232e	; 0x232e <__mulsi3>
    1c62:	dc 01       	movw	r26, r24
    1c64:	cb 01       	movw	r24, r22
    1c66:	8d 83       	std	Y+5, r24	; 0x05
    1c68:	9e 83       	std	Y+6, r25	; 0x06
    1c6a:	af 83       	std	Y+7, r26	; 0x07
    1c6c:	b8 87       	std	Y+8, r27	; 0x08
					Global_u32Number_Of_Overflow = Local_u32Load / TIMER0_MAXIMUM_VALUE ;
    1c6e:	8d 81       	ldd	r24, Y+5	; 0x05
    1c70:	9e 81       	ldd	r25, Y+6	; 0x06
    1c72:	af 81       	ldd	r26, Y+7	; 0x07
    1c74:	b8 85       	ldd	r27, Y+8	; 0x08
    1c76:	2f ef       	ldi	r18, 0xFF	; 255
    1c78:	30 e0       	ldi	r19, 0x00	; 0
    1c7a:	40 e0       	ldi	r20, 0x00	; 0
    1c7c:	50 e0       	ldi	r21, 0x00	; 0
    1c7e:	bc 01       	movw	r22, r24
    1c80:	cd 01       	movw	r24, r26
    1c82:	0e 94 b6 11 	call	0x236c	; 0x236c <__udivmodsi4>
    1c86:	da 01       	movw	r26, r20
    1c88:	c9 01       	movw	r24, r18
    1c8a:	80 93 84 00 	sts	0x0084, r24
    1c8e:	90 93 85 00 	sts	0x0085, r25
    1c92:	a0 93 86 00 	sts	0x0086, r26
    1c96:	b0 93 87 00 	sts	0x0087, r27
					Global_u8RemainingTime       = Local_u32Load % TIMER0_MAXIMUM_VALUE;
    1c9a:	8d 81       	ldd	r24, Y+5	; 0x05
    1c9c:	9e 81       	ldd	r25, Y+6	; 0x06
    1c9e:	af 81       	ldd	r26, Y+7	; 0x07
    1ca0:	b8 85       	ldd	r27, Y+8	; 0x08
    1ca2:	2f ef       	ldi	r18, 0xFF	; 255
    1ca4:	30 e0       	ldi	r19, 0x00	; 0
    1ca6:	40 e0       	ldi	r20, 0x00	; 0
    1ca8:	50 e0       	ldi	r21, 0x00	; 0
    1caa:	bc 01       	movw	r22, r24
    1cac:	cd 01       	movw	r24, r26
    1cae:	0e 94 b6 11 	call	0x236c	; 0x236c <__udivmodsi4>
    1cb2:	dc 01       	movw	r26, r24
    1cb4:	cb 01       	movw	r24, r22
    1cb6:	80 93 88 00 	sts	0x0088, r24
					Global_u8RemainingTime       = (TIMER0_MAXIMUM_VALUE - Global_u8RemainingTime);
    1cba:	80 91 88 00 	lds	r24, 0x0088
    1cbe:	80 95       	com	r24
    1cc0:	80 93 88 00 	sts	0x0088, r24
					TIMER0->TCNT0 = Global_u8RemainingTime ;
    1cc4:	e0 e5       	ldi	r30, 0x50	; 80
    1cc6:	f0 e0       	ldi	r31, 0x00	; 0
    1cc8:	80 91 88 00 	lds	r24, 0x0088
    1ccc:	82 83       	std	Z+2, r24	; 0x02
					break;
			/*----------------------------------------------------------------------------------*/
		}
	
	/* Start Timer */
	M_TIMER0_voidStart();
    1cce:	0e 94 22 0d 	call	0x1a44	; 0x1a44 <M_TIMER0_voidStart>
	
	/* Enable Interrupt */
	M_TIMER0_voidInterrupt_Enable(TIMER0_OVERFLOW_INTERRUPT);
    1cd2:	81 e0       	ldi	r24, 0x01	; 1
    1cd4:	0e 94 a6 0f 	call	0x1f4c	; 0x1f4c <M_TIMER0_voidInterrupt_Enable>

	while(TIM0_GLOBAL_FUN == TIMER0_BUSY_WAIT_FUNCTION);
    1cd8:	80 91 60 00 	lds	r24, 0x0060
    1cdc:	88 23       	and	r24, r24
    1cde:	e1 f3       	breq	.-8      	; 0x1cd8 <M_TIMER0_voidSetBusyWait+0x236>

}
    1ce0:	2f 96       	adiw	r28, 0x0f	; 15
    1ce2:	0f b6       	in	r0, 0x3f	; 63
    1ce4:	f8 94       	cli
    1ce6:	de bf       	out	0x3e, r29	; 62
    1ce8:	0f be       	out	0x3f, r0	; 63
    1cea:	cd bf       	out	0x3d, r28	; 61
    1cec:	cf 91       	pop	r28
    1cee:	df 91       	pop	r29
    1cf0:	08 95       	ret

00001cf2 <M_TIMER0_voidSetPeriodic>:
/*******************************************************************************/
void M_TIMER0_voidSetPeriodic(u32 Copy_u32Time, TIMER0_TIME_t Copy_timeUnit, void (*func)(void))
{
    1cf2:	df 93       	push	r29
    1cf4:	cf 93       	push	r28
    1cf6:	cd b7       	in	r28, 0x3d	; 61
    1cf8:	de b7       	in	r29, 0x3e	; 62
    1cfa:	61 97       	sbiw	r28, 0x11	; 17
    1cfc:	0f b6       	in	r0, 0x3f	; 63
    1cfe:	f8 94       	cli
    1d00:	de bf       	out	0x3e, r29	; 62
    1d02:	0f be       	out	0x3f, r0	; 63
    1d04:	cd bf       	out	0x3d, r28	; 61
    1d06:	69 87       	std	Y+9, r22	; 0x09
    1d08:	7a 87       	std	Y+10, r23	; 0x0a
    1d0a:	8b 87       	std	Y+11, r24	; 0x0b
    1d0c:	9c 87       	std	Y+12, r25	; 0x0c
    1d0e:	4d 87       	std	Y+13, r20	; 0x0d
    1d10:	3f 87       	std	Y+15, r19	; 0x0f
    1d12:	2e 87       	std	Y+14, r18	; 0x0e
	TIM0_GLOBAL_FUN = TIMER0_PERIODIC_INTERRUPT_FUNCTION;
    1d14:	81 e0       	ldi	r24, 0x01	; 1
    1d16:	80 93 60 00 	sts	0x0060, r24

	M_TIMER0_voidInterrupt_Disable(TIMER0_OVERFLOW_INTERRUPT);
    1d1a:	81 e0       	ldi	r24, 0x01	; 1
    1d1c:	0e 94 c9 0f 	call	0x1f92	; 0x1f92 <M_TIMER0_voidInterrupt_Disable>
	
	u32 Local_u32Load = 0;
    1d20:	1d 82       	std	Y+5, r1	; 0x05
    1d22:	1e 82       	std	Y+6, r1	; 0x06
    1d24:	1f 82       	std	Y+7, r1	; 0x07
    1d26:	18 86       	std	Y+8, r1	; 0x08
	u32 Timer0_CLK = 0 ;
    1d28:	19 82       	std	Y+1, r1	; 0x01
    1d2a:	1a 82       	std	Y+2, r1	; 0x02
    1d2c:	1b 82       	std	Y+3, r1	; 0x03
    1d2e:	1c 82       	std	Y+4, r1	; 0x04
	#if TIMER0_PRESCALER   == TIMER0_NO_CLK
		Timer0_CLK = 0 ;
	#elif TIMER0_PRESCALER == TIMER0_PRESCALER_1
		Timer0_CLK = SYSTEM_CLOCK_SOURCE ;
    1d30:	80 e0       	ldi	r24, 0x00	; 0
    1d32:	94 e2       	ldi	r25, 0x24	; 36
    1d34:	a4 ef       	ldi	r26, 0xF4	; 244
    1d36:	b0 e0       	ldi	r27, 0x00	; 0
    1d38:	89 83       	std	Y+1, r24	; 0x01
    1d3a:	9a 83       	std	Y+2, r25	; 0x02
    1d3c:	ab 83       	std	Y+3, r26	; 0x03
    1d3e:	bc 83       	std	Y+4, r27	; 0x04
	#else
		#error (" Configuration error")
	#endif
	
		/* Calculate */
		switch(Copy_timeUnit)
    1d40:	8d 85       	ldd	r24, Y+13	; 0x0d
    1d42:	28 2f       	mov	r18, r24
    1d44:	30 e0       	ldi	r19, 0x00	; 0
    1d46:	39 8b       	std	Y+17, r19	; 0x11
    1d48:	28 8b       	std	Y+16, r18	; 0x10
    1d4a:	88 89       	ldd	r24, Y+16	; 0x10
    1d4c:	99 89       	ldd	r25, Y+17	; 0x11
    1d4e:	81 30       	cpi	r24, 0x01	; 1
    1d50:	91 05       	cpc	r25, r1
    1d52:	09 f4       	brne	.+2      	; 0x1d56 <M_TIMER0_voidSetPeriodic+0x64>
    1d54:	4e c0       	rjmp	.+156    	; 0x1df2 <M_TIMER0_voidSetPeriodic+0x100>
    1d56:	28 89       	ldd	r18, Y+16	; 0x10
    1d58:	39 89       	ldd	r19, Y+17	; 0x11
    1d5a:	22 30       	cpi	r18, 0x02	; 2
    1d5c:	31 05       	cpc	r19, r1
    1d5e:	09 f4       	brne	.+2      	; 0x1d62 <M_TIMER0_voidSetPeriodic+0x70>
    1d60:	95 c0       	rjmp	.+298    	; 0x1e8c <M_TIMER0_voidSetPeriodic+0x19a>
    1d62:	88 89       	ldd	r24, Y+16	; 0x10
    1d64:	99 89       	ldd	r25, Y+17	; 0x11
    1d66:	00 97       	sbiw	r24, 0x00	; 0
    1d68:	09 f0       	breq	.+2      	; 0x1d6c <M_TIMER0_voidSetPeriodic+0x7a>
    1d6a:	dc c0       	rjmp	.+440    	; 0x1f24 <M_TIMER0_voidSetPeriodic+0x232>
		{
			/*----------------------------------------------------------------------------------*/
			case TIME_S :
					Local_u32Load = Copy_u32Time * Timer0_CLK ;
    1d6c:	89 85       	ldd	r24, Y+9	; 0x09
    1d6e:	9a 85       	ldd	r25, Y+10	; 0x0a
    1d70:	ab 85       	ldd	r26, Y+11	; 0x0b
    1d72:	bc 85       	ldd	r27, Y+12	; 0x0c
    1d74:	29 81       	ldd	r18, Y+1	; 0x01
    1d76:	3a 81       	ldd	r19, Y+2	; 0x02
    1d78:	4b 81       	ldd	r20, Y+3	; 0x03
    1d7a:	5c 81       	ldd	r21, Y+4	; 0x04
    1d7c:	bc 01       	movw	r22, r24
    1d7e:	cd 01       	movw	r24, r26
    1d80:	0e 94 97 11 	call	0x232e	; 0x232e <__mulsi3>
    1d84:	dc 01       	movw	r26, r24
    1d86:	cb 01       	movw	r24, r22
    1d88:	8d 83       	std	Y+5, r24	; 0x05
    1d8a:	9e 83       	std	Y+6, r25	; 0x06
    1d8c:	af 83       	std	Y+7, r26	; 0x07
    1d8e:	b8 87       	std	Y+8, r27	; 0x08
					Global_u32Number_Of_Overflow = Local_u32Load / TIMER0_MAXIMUM_VALUE ;
    1d90:	8d 81       	ldd	r24, Y+5	; 0x05
    1d92:	9e 81       	ldd	r25, Y+6	; 0x06
    1d94:	af 81       	ldd	r26, Y+7	; 0x07
    1d96:	b8 85       	ldd	r27, Y+8	; 0x08
    1d98:	2f ef       	ldi	r18, 0xFF	; 255
    1d9a:	30 e0       	ldi	r19, 0x00	; 0
    1d9c:	40 e0       	ldi	r20, 0x00	; 0
    1d9e:	50 e0       	ldi	r21, 0x00	; 0
    1da0:	bc 01       	movw	r22, r24
    1da2:	cd 01       	movw	r24, r26
    1da4:	0e 94 b6 11 	call	0x236c	; 0x236c <__udivmodsi4>
    1da8:	da 01       	movw	r26, r20
    1daa:	c9 01       	movw	r24, r18
    1dac:	80 93 84 00 	sts	0x0084, r24
    1db0:	90 93 85 00 	sts	0x0085, r25
    1db4:	a0 93 86 00 	sts	0x0086, r26
    1db8:	b0 93 87 00 	sts	0x0087, r27
					Global_u8RemainingTime       = Local_u32Load % TIMER0_MAXIMUM_VALUE;
    1dbc:	8d 81       	ldd	r24, Y+5	; 0x05
    1dbe:	9e 81       	ldd	r25, Y+6	; 0x06
    1dc0:	af 81       	ldd	r26, Y+7	; 0x07
    1dc2:	b8 85       	ldd	r27, Y+8	; 0x08
    1dc4:	2f ef       	ldi	r18, 0xFF	; 255
    1dc6:	30 e0       	ldi	r19, 0x00	; 0
    1dc8:	40 e0       	ldi	r20, 0x00	; 0
    1dca:	50 e0       	ldi	r21, 0x00	; 0
    1dcc:	bc 01       	movw	r22, r24
    1dce:	cd 01       	movw	r24, r26
    1dd0:	0e 94 b6 11 	call	0x236c	; 0x236c <__udivmodsi4>
    1dd4:	dc 01       	movw	r26, r24
    1dd6:	cb 01       	movw	r24, r22
    1dd8:	80 93 88 00 	sts	0x0088, r24
					Global_u8RemainingTime       = (TIMER0_MAXIMUM_VALUE - Global_u8RemainingTime);
    1ddc:	80 91 88 00 	lds	r24, 0x0088
    1de0:	80 95       	com	r24
    1de2:	80 93 88 00 	sts	0x0088, r24
					TIMER0->TCNT0 = Global_u8RemainingTime ;
    1de6:	e0 e5       	ldi	r30, 0x50	; 80
    1de8:	f0 e0       	ldi	r31, 0x00	; 0
    1dea:	80 91 88 00 	lds	r24, 0x0088
    1dee:	82 83       	std	Z+2, r24	; 0x02
    1df0:	99 c0       	rjmp	.+306    	; 0x1f24 <M_TIMER0_voidSetPeriodic+0x232>
	 				break;
			/*----------------------------------------------------------------------------------*/
			case TIME_MS :
					Local_u32Load = Copy_u32Time * (Timer0_CLK / 1000) ;
    1df2:	89 81       	ldd	r24, Y+1	; 0x01
    1df4:	9a 81       	ldd	r25, Y+2	; 0x02
    1df6:	ab 81       	ldd	r26, Y+3	; 0x03
    1df8:	bc 81       	ldd	r27, Y+4	; 0x04
    1dfa:	28 ee       	ldi	r18, 0xE8	; 232
    1dfc:	33 e0       	ldi	r19, 0x03	; 3
    1dfe:	40 e0       	ldi	r20, 0x00	; 0
    1e00:	50 e0       	ldi	r21, 0x00	; 0
    1e02:	bc 01       	movw	r22, r24
    1e04:	cd 01       	movw	r24, r26
    1e06:	0e 94 b6 11 	call	0x236c	; 0x236c <__udivmodsi4>
    1e0a:	da 01       	movw	r26, r20
    1e0c:	c9 01       	movw	r24, r18
    1e0e:	29 85       	ldd	r18, Y+9	; 0x09
    1e10:	3a 85       	ldd	r19, Y+10	; 0x0a
    1e12:	4b 85       	ldd	r20, Y+11	; 0x0b
    1e14:	5c 85       	ldd	r21, Y+12	; 0x0c
    1e16:	bc 01       	movw	r22, r24
    1e18:	cd 01       	movw	r24, r26
    1e1a:	0e 94 97 11 	call	0x232e	; 0x232e <__mulsi3>
    1e1e:	dc 01       	movw	r26, r24
    1e20:	cb 01       	movw	r24, r22
    1e22:	8d 83       	std	Y+5, r24	; 0x05
    1e24:	9e 83       	std	Y+6, r25	; 0x06
    1e26:	af 83       	std	Y+7, r26	; 0x07
    1e28:	b8 87       	std	Y+8, r27	; 0x08
					Global_u32Number_Of_Overflow = Local_u32Load / TIMER0_MAXIMUM_VALUE ;
    1e2a:	8d 81       	ldd	r24, Y+5	; 0x05
    1e2c:	9e 81       	ldd	r25, Y+6	; 0x06
    1e2e:	af 81       	ldd	r26, Y+7	; 0x07
    1e30:	b8 85       	ldd	r27, Y+8	; 0x08
    1e32:	2f ef       	ldi	r18, 0xFF	; 255
    1e34:	30 e0       	ldi	r19, 0x00	; 0
    1e36:	40 e0       	ldi	r20, 0x00	; 0
    1e38:	50 e0       	ldi	r21, 0x00	; 0
    1e3a:	bc 01       	movw	r22, r24
    1e3c:	cd 01       	movw	r24, r26
    1e3e:	0e 94 b6 11 	call	0x236c	; 0x236c <__udivmodsi4>
    1e42:	da 01       	movw	r26, r20
    1e44:	c9 01       	movw	r24, r18
    1e46:	80 93 84 00 	sts	0x0084, r24
    1e4a:	90 93 85 00 	sts	0x0085, r25
    1e4e:	a0 93 86 00 	sts	0x0086, r26
    1e52:	b0 93 87 00 	sts	0x0087, r27
					Global_u8RemainingTime       = Local_u32Load % TIMER0_MAXIMUM_VALUE;
    1e56:	8d 81       	ldd	r24, Y+5	; 0x05
    1e58:	9e 81       	ldd	r25, Y+6	; 0x06
    1e5a:	af 81       	ldd	r26, Y+7	; 0x07
    1e5c:	b8 85       	ldd	r27, Y+8	; 0x08
    1e5e:	2f ef       	ldi	r18, 0xFF	; 255
    1e60:	30 e0       	ldi	r19, 0x00	; 0
    1e62:	40 e0       	ldi	r20, 0x00	; 0
    1e64:	50 e0       	ldi	r21, 0x00	; 0
    1e66:	bc 01       	movw	r22, r24
    1e68:	cd 01       	movw	r24, r26
    1e6a:	0e 94 b6 11 	call	0x236c	; 0x236c <__udivmodsi4>
    1e6e:	dc 01       	movw	r26, r24
    1e70:	cb 01       	movw	r24, r22
    1e72:	80 93 88 00 	sts	0x0088, r24
					Global_u8RemainingTime       = (TIMER0_MAXIMUM_VALUE - Global_u8RemainingTime);
    1e76:	80 91 88 00 	lds	r24, 0x0088
    1e7a:	80 95       	com	r24
    1e7c:	80 93 88 00 	sts	0x0088, r24
					TIMER0->TCNT0 = Global_u8RemainingTime ;
    1e80:	e0 e5       	ldi	r30, 0x50	; 80
    1e82:	f0 e0       	ldi	r31, 0x00	; 0
    1e84:	80 91 88 00 	lds	r24, 0x0088
    1e88:	82 83       	std	Z+2, r24	; 0x02
    1e8a:	4c c0       	rjmp	.+152    	; 0x1f24 <M_TIMER0_voidSetPeriodic+0x232>
	 				break;
			/*----------------------------------------------------------------------------------*/
			case TIME_US :
					Local_u32Load = Copy_u32Time * (Timer0_CLK / 1000000) ;
    1e8c:	89 81       	ldd	r24, Y+1	; 0x01
    1e8e:	9a 81       	ldd	r25, Y+2	; 0x02
    1e90:	ab 81       	ldd	r26, Y+3	; 0x03
    1e92:	bc 81       	ldd	r27, Y+4	; 0x04
    1e94:	20 e4       	ldi	r18, 0x40	; 64
    1e96:	32 e4       	ldi	r19, 0x42	; 66
    1e98:	4f e0       	ldi	r20, 0x0F	; 15
    1e9a:	50 e0       	ldi	r21, 0x00	; 0
    1e9c:	bc 01       	movw	r22, r24
    1e9e:	cd 01       	movw	r24, r26
    1ea0:	0e 94 b6 11 	call	0x236c	; 0x236c <__udivmodsi4>
    1ea4:	da 01       	movw	r26, r20
    1ea6:	c9 01       	movw	r24, r18
    1ea8:	29 85       	ldd	r18, Y+9	; 0x09
    1eaa:	3a 85       	ldd	r19, Y+10	; 0x0a
    1eac:	4b 85       	ldd	r20, Y+11	; 0x0b
    1eae:	5c 85       	ldd	r21, Y+12	; 0x0c
    1eb0:	bc 01       	movw	r22, r24
    1eb2:	cd 01       	movw	r24, r26
    1eb4:	0e 94 97 11 	call	0x232e	; 0x232e <__mulsi3>
    1eb8:	dc 01       	movw	r26, r24
    1eba:	cb 01       	movw	r24, r22
    1ebc:	8d 83       	std	Y+5, r24	; 0x05
    1ebe:	9e 83       	std	Y+6, r25	; 0x06
    1ec0:	af 83       	std	Y+7, r26	; 0x07
    1ec2:	b8 87       	std	Y+8, r27	; 0x08
					Global_u32Number_Of_Overflow = Local_u32Load / TIMER0_MAXIMUM_VALUE ;
    1ec4:	8d 81       	ldd	r24, Y+5	; 0x05
    1ec6:	9e 81       	ldd	r25, Y+6	; 0x06
    1ec8:	af 81       	ldd	r26, Y+7	; 0x07
    1eca:	b8 85       	ldd	r27, Y+8	; 0x08
    1ecc:	2f ef       	ldi	r18, 0xFF	; 255
    1ece:	30 e0       	ldi	r19, 0x00	; 0
    1ed0:	40 e0       	ldi	r20, 0x00	; 0
    1ed2:	50 e0       	ldi	r21, 0x00	; 0
    1ed4:	bc 01       	movw	r22, r24
    1ed6:	cd 01       	movw	r24, r26
    1ed8:	0e 94 b6 11 	call	0x236c	; 0x236c <__udivmodsi4>
    1edc:	da 01       	movw	r26, r20
    1ede:	c9 01       	movw	r24, r18
    1ee0:	80 93 84 00 	sts	0x0084, r24
    1ee4:	90 93 85 00 	sts	0x0085, r25
    1ee8:	a0 93 86 00 	sts	0x0086, r26
    1eec:	b0 93 87 00 	sts	0x0087, r27
					Global_u8RemainingTime       = Local_u32Load % TIMER0_MAXIMUM_VALUE;
    1ef0:	8d 81       	ldd	r24, Y+5	; 0x05
    1ef2:	9e 81       	ldd	r25, Y+6	; 0x06
    1ef4:	af 81       	ldd	r26, Y+7	; 0x07
    1ef6:	b8 85       	ldd	r27, Y+8	; 0x08
    1ef8:	2f ef       	ldi	r18, 0xFF	; 255
    1efa:	30 e0       	ldi	r19, 0x00	; 0
    1efc:	40 e0       	ldi	r20, 0x00	; 0
    1efe:	50 e0       	ldi	r21, 0x00	; 0
    1f00:	bc 01       	movw	r22, r24
    1f02:	cd 01       	movw	r24, r26
    1f04:	0e 94 b6 11 	call	0x236c	; 0x236c <__udivmodsi4>
    1f08:	dc 01       	movw	r26, r24
    1f0a:	cb 01       	movw	r24, r22
    1f0c:	80 93 88 00 	sts	0x0088, r24
					Global_u8RemainingTime       = (TIMER0_MAXIMUM_VALUE - Global_u8RemainingTime);
    1f10:	80 91 88 00 	lds	r24, 0x0088
    1f14:	80 95       	com	r24
    1f16:	80 93 88 00 	sts	0x0088, r24
					TIMER0->TCNT0 = Global_u8RemainingTime ;
    1f1a:	e0 e5       	ldi	r30, 0x50	; 80
    1f1c:	f0 e0       	ldi	r31, 0x00	; 0
    1f1e:	80 91 88 00 	lds	r24, 0x0088
    1f22:	82 83       	std	Z+2, r24	; 0x02
			/*----------------------------------------------------------------------------------*/
		}
	
	
	/* Set call back function */
	TIMER0_CallBack[0] = func ;
    1f24:	8e 85       	ldd	r24, Y+14	; 0x0e
    1f26:	9f 85       	ldd	r25, Y+15	; 0x0f
    1f28:	90 93 97 00 	sts	0x0097, r25
    1f2c:	80 93 96 00 	sts	0x0096, r24
	
	/* Start Timer */
	M_TIMER0_voidStart();
    1f30:	0e 94 22 0d 	call	0x1a44	; 0x1a44 <M_TIMER0_voidStart>
	
	/* Enable Interrupt */
	M_TIMER0_voidInterrupt_Enable(TIMER0_OVERFLOW_INTERRUPT);
    1f34:	81 e0       	ldi	r24, 0x01	; 1
    1f36:	0e 94 a6 0f 	call	0x1f4c	; 0x1f4c <M_TIMER0_voidInterrupt_Enable>

}
    1f3a:	61 96       	adiw	r28, 0x11	; 17
    1f3c:	0f b6       	in	r0, 0x3f	; 63
    1f3e:	f8 94       	cli
    1f40:	de bf       	out	0x3e, r29	; 62
    1f42:	0f be       	out	0x3f, r0	; 63
    1f44:	cd bf       	out	0x3d, r28	; 61
    1f46:	cf 91       	pop	r28
    1f48:	df 91       	pop	r29
    1f4a:	08 95       	ret

00001f4c <M_TIMER0_voidInterrupt_Enable>:
/*******************************************************************************/
void M_TIMER0_voidInterrupt_Enable(TIMER0_INT_t Copy_Interrupt_ID)
{
    1f4c:	df 93       	push	r29
    1f4e:	cf 93       	push	r28
    1f50:	0f 92       	push	r0
    1f52:	cd b7       	in	r28, 0x3d	; 61
    1f54:	de b7       	in	r29, 0x3e	; 62
    1f56:	89 83       	std	Y+1, r24	; 0x01
	if(Copy_Interrupt_ID == TIMER0_OUTPUT_COMPARE_MATCH_INTERRUPT)
    1f58:	89 81       	ldd	r24, Y+1	; 0x01
    1f5a:	88 23       	and	r24, r24
    1f5c:	51 f4       	brne	.+20     	; 0x1f72 <M_TIMER0_voidInterrupt_Enable+0x26>
	{
		SET_BIT( TIMER0->TIMSK , 1);
    1f5e:	a0 e5       	ldi	r26, 0x50	; 80
    1f60:	b0 e0       	ldi	r27, 0x00	; 0
    1f62:	e0 e5       	ldi	r30, 0x50	; 80
    1f64:	f0 e0       	ldi	r31, 0x00	; 0
    1f66:	81 85       	ldd	r24, Z+9	; 0x09
    1f68:	82 60       	ori	r24, 0x02	; 2
    1f6a:	19 96       	adiw	r26, 0x09	; 9
    1f6c:	8c 93       	st	X, r24
    1f6e:	19 97       	sbiw	r26, 0x09	; 9
    1f70:	0c c0       	rjmp	.+24     	; 0x1f8a <M_TIMER0_voidInterrupt_Enable+0x3e>

	}
	else if(Copy_Interrupt_ID == TIMER0_OVERFLOW_INTERRUPT)
    1f72:	89 81       	ldd	r24, Y+1	; 0x01
    1f74:	81 30       	cpi	r24, 0x01	; 1
    1f76:	49 f4       	brne	.+18     	; 0x1f8a <M_TIMER0_voidInterrupt_Enable+0x3e>
	{
		SET_BIT( TIMER0->TIMSK , 0);
    1f78:	a0 e5       	ldi	r26, 0x50	; 80
    1f7a:	b0 e0       	ldi	r27, 0x00	; 0
    1f7c:	e0 e5       	ldi	r30, 0x50	; 80
    1f7e:	f0 e0       	ldi	r31, 0x00	; 0
    1f80:	81 85       	ldd	r24, Z+9	; 0x09
    1f82:	81 60       	ori	r24, 0x01	; 1
    1f84:	19 96       	adiw	r26, 0x09	; 9
    1f86:	8c 93       	st	X, r24
    1f88:	19 97       	sbiw	r26, 0x09	; 9
	}
}
    1f8a:	0f 90       	pop	r0
    1f8c:	cf 91       	pop	r28
    1f8e:	df 91       	pop	r29
    1f90:	08 95       	ret

00001f92 <M_TIMER0_voidInterrupt_Disable>:
/*******************************************************************************/
void M_TIMER0_voidInterrupt_Disable(TIMER0_INT_t Copy_Interrupt_ID)
{
    1f92:	df 93       	push	r29
    1f94:	cf 93       	push	r28
    1f96:	0f 92       	push	r0
    1f98:	cd b7       	in	r28, 0x3d	; 61
    1f9a:	de b7       	in	r29, 0x3e	; 62
    1f9c:	89 83       	std	Y+1, r24	; 0x01
	if(Copy_Interrupt_ID == TIMER0_OUTPUT_COMPARE_MATCH_INTERRUPT)
    1f9e:	89 81       	ldd	r24, Y+1	; 0x01
    1fa0:	88 23       	and	r24, r24
    1fa2:	51 f4       	brne	.+20     	; 0x1fb8 <M_TIMER0_voidInterrupt_Disable+0x26>
	{
		CLR_BIT( TIMER0->TIMSK , 1);
    1fa4:	a0 e5       	ldi	r26, 0x50	; 80
    1fa6:	b0 e0       	ldi	r27, 0x00	; 0
    1fa8:	e0 e5       	ldi	r30, 0x50	; 80
    1faa:	f0 e0       	ldi	r31, 0x00	; 0
    1fac:	81 85       	ldd	r24, Z+9	; 0x09
    1fae:	8d 7f       	andi	r24, 0xFD	; 253
    1fb0:	19 96       	adiw	r26, 0x09	; 9
    1fb2:	8c 93       	st	X, r24
    1fb4:	19 97       	sbiw	r26, 0x09	; 9
    1fb6:	0c c0       	rjmp	.+24     	; 0x1fd0 <M_TIMER0_voidInterrupt_Disable+0x3e>

	}
	else if(Copy_Interrupt_ID == TIMER0_OVERFLOW_INTERRUPT)
    1fb8:	89 81       	ldd	r24, Y+1	; 0x01
    1fba:	81 30       	cpi	r24, 0x01	; 1
    1fbc:	49 f4       	brne	.+18     	; 0x1fd0 <M_TIMER0_voidInterrupt_Disable+0x3e>
	{
		CLR_BIT( TIMER0->TIMSK , 0);
    1fbe:	a0 e5       	ldi	r26, 0x50	; 80
    1fc0:	b0 e0       	ldi	r27, 0x00	; 0
    1fc2:	e0 e5       	ldi	r30, 0x50	; 80
    1fc4:	f0 e0       	ldi	r31, 0x00	; 0
    1fc6:	81 85       	ldd	r24, Z+9	; 0x09
    1fc8:	8e 7f       	andi	r24, 0xFE	; 254
    1fca:	19 96       	adiw	r26, 0x09	; 9
    1fcc:	8c 93       	st	X, r24
    1fce:	19 97       	sbiw	r26, 0x09	; 9
	}
}
    1fd0:	0f 90       	pop	r0
    1fd2:	cf 91       	pop	r28
    1fd4:	df 91       	pop	r29
    1fd6:	08 95       	ret

00001fd8 <M_TIMER0_voidSetFastPWM>:
/*******************************************************************************/

void M_TIMER0_voidSetFastPWM(u8 Copy_u8DutyCycle)
{
    1fd8:	df 93       	push	r29
    1fda:	cf 93       	push	r28
    1fdc:	0f 92       	push	r0
    1fde:	cd b7       	in	r28, 0x3d	; 61
    1fe0:	de b7       	in	r29, 0x3e	; 62
    1fe2:	89 83       	std	Y+1, r24	; 0x01
			M_TIMER0_voidInterrupt_Enable(TIMER0_OUTPUT_COMPARE_MATCH_INTERRUPT);
		#endif
	#else
		#warning "[Fast PWM] is Disabled"
	#endif
}
    1fe4:	0f 90       	pop	r0
    1fe6:	cf 91       	pop	r28
    1fe8:	df 91       	pop	r29
    1fea:	08 95       	ret

00001fec <M_TIMER0_voidSetPhaseCorrectPWM>:

void M_TIMER0_voidSetPhaseCorrectPWM(u8 Copy_u8DutyCycle)
{
    1fec:	df 93       	push	r29
    1fee:	cf 93       	push	r28
    1ff0:	0f 92       	push	r0
    1ff2:	cd b7       	in	r28, 0x3d	; 61
    1ff4:	de b7       	in	r29, 0x3e	; 62
    1ff6:	89 83       	std	Y+1, r24	; 0x01
		#endif
	#else
		#warning "[Phase Correct PWM] is Disabled"
	#endif

}
    1ff8:	0f 90       	pop	r0
    1ffa:	cf 91       	pop	r28
    1ffc:	df 91       	pop	r29
    1ffe:	08 95       	ret

00002000 <__vector_10>:
/*******************************************************************************/
/* Timer/Counter0 Compare Match  ISR */
TIMER0_CompareMatch_IRQHandler
{
    2000:	1f 92       	push	r1
    2002:	0f 92       	push	r0
    2004:	0f b6       	in	r0, 0x3f	; 63
    2006:	0f 92       	push	r0
    2008:	11 24       	eor	r1, r1
    200a:	df 93       	push	r29
    200c:	cf 93       	push	r28
    200e:	cd b7       	in	r28, 0x3d	; 61
    2010:	de b7       	in	r29, 0x3e	; 62
//	TIMER0_CallBack[1]();
}
    2012:	cf 91       	pop	r28
    2014:	df 91       	pop	r29
    2016:	0f 90       	pop	r0
    2018:	0f be       	out	0x3f, r0	; 63
    201a:	0f 90       	pop	r0
    201c:	1f 90       	pop	r1
    201e:	18 95       	reti

00002020 <__vector_11>:
/*******************************************************************************/
/* Timer/Counter0 Overflow ISR */
TIMER0_Overflow_IRQHandler
{
    2020:	1f 92       	push	r1
    2022:	0f 92       	push	r0
    2024:	0f b6       	in	r0, 0x3f	; 63
    2026:	0f 92       	push	r0
    2028:	11 24       	eor	r1, r1
    202a:	2f 93       	push	r18
    202c:	3f 93       	push	r19
    202e:	4f 93       	push	r20
    2030:	5f 93       	push	r21
    2032:	6f 93       	push	r22
    2034:	7f 93       	push	r23
    2036:	8f 93       	push	r24
    2038:	9f 93       	push	r25
    203a:	af 93       	push	r26
    203c:	bf 93       	push	r27
    203e:	ef 93       	push	r30
    2040:	ff 93       	push	r31
    2042:	df 93       	push	r29
    2044:	cf 93       	push	r28
    2046:	cd b7       	in	r28, 0x3d	; 61
    2048:	de b7       	in	r29, 0x3e	; 62
	if(	TIM0_GLOBAL_FUN == TIMER0_PERIODIC_INTERRUPT_FUNCTION)
    204a:	80 91 60 00 	lds	r24, 0x0060
    204e:	81 30       	cpi	r24, 0x01	; 1
    2050:	09 f0       	breq	.+2      	; 0x2054 <__vector_11+0x34>
    2052:	42 c0       	rjmp	.+132    	; 0x20d8 <__vector_11+0xb8>
	{
		static u32 Timer_Overflow_counter = 0;
		Timer_Overflow_counter++;
    2054:	80 91 8d 00 	lds	r24, 0x008D
    2058:	90 91 8e 00 	lds	r25, 0x008E
    205c:	a0 91 8f 00 	lds	r26, 0x008F
    2060:	b0 91 90 00 	lds	r27, 0x0090
    2064:	01 96       	adiw	r24, 0x01	; 1
    2066:	a1 1d       	adc	r26, r1
    2068:	b1 1d       	adc	r27, r1
    206a:	80 93 8d 00 	sts	0x008D, r24
    206e:	90 93 8e 00 	sts	0x008E, r25
    2072:	a0 93 8f 00 	sts	0x008F, r26
    2076:	b0 93 90 00 	sts	0x0090, r27
		if(Timer_Overflow_counter == Global_u32Number_Of_Overflow+1)
    207a:	80 91 84 00 	lds	r24, 0x0084
    207e:	90 91 85 00 	lds	r25, 0x0085
    2082:	a0 91 86 00 	lds	r26, 0x0086
    2086:	b0 91 87 00 	lds	r27, 0x0087
    208a:	9c 01       	movw	r18, r24
    208c:	ad 01       	movw	r20, r26
    208e:	2f 5f       	subi	r18, 0xFF	; 255
    2090:	3f 4f       	sbci	r19, 0xFF	; 255
    2092:	4f 4f       	sbci	r20, 0xFF	; 255
    2094:	5f 4f       	sbci	r21, 0xFF	; 255
    2096:	80 91 8d 00 	lds	r24, 0x008D
    209a:	90 91 8e 00 	lds	r25, 0x008E
    209e:	a0 91 8f 00 	lds	r26, 0x008F
    20a2:	b0 91 90 00 	lds	r27, 0x0090
    20a6:	28 17       	cp	r18, r24
    20a8:	39 07       	cpc	r19, r25
    20aa:	4a 07       	cpc	r20, r26
    20ac:	5b 07       	cpc	r21, r27
    20ae:	09 f0       	breq	.+2      	; 0x20b2 <__vector_11+0x92>
    20b0:	61 c0       	rjmp	.+194    	; 0x2174 <__vector_11+0x154>
		{
			TIMER0_CallBack[0]();
    20b2:	e0 91 96 00 	lds	r30, 0x0096
    20b6:	f0 91 97 00 	lds	r31, 0x0097
    20ba:	09 95       	icall
			Timer_Overflow_counter = 0 ;
    20bc:	10 92 8d 00 	sts	0x008D, r1
    20c0:	10 92 8e 00 	sts	0x008E, r1
    20c4:	10 92 8f 00 	sts	0x008F, r1
    20c8:	10 92 90 00 	sts	0x0090, r1
			TIMER0->TCNT0 = Global_u8RemainingTime ;
    20cc:	e0 e5       	ldi	r30, 0x50	; 80
    20ce:	f0 e0       	ldi	r31, 0x00	; 0
    20d0:	80 91 88 00 	lds	r24, 0x0088
    20d4:	82 83       	std	Z+2, r24	; 0x02
    20d6:	4e c0       	rjmp	.+156    	; 0x2174 <__vector_11+0x154>

		}
	}

	else if (TIM0_GLOBAL_FUN == TIMER0_BUSY_WAIT_FUNCTION)
    20d8:	80 91 60 00 	lds	r24, 0x0060
    20dc:	88 23       	and	r24, r24
    20de:	09 f0       	breq	.+2      	; 0x20e2 <__vector_11+0xc2>
    20e0:	49 c0       	rjmp	.+146    	; 0x2174 <__vector_11+0x154>
	{
		static u32 Timer_Overflow_counter = 0;
		Timer_Overflow_counter++;
    20e2:	80 91 89 00 	lds	r24, 0x0089
    20e6:	90 91 8a 00 	lds	r25, 0x008A
    20ea:	a0 91 8b 00 	lds	r26, 0x008B
    20ee:	b0 91 8c 00 	lds	r27, 0x008C
    20f2:	01 96       	adiw	r24, 0x01	; 1
    20f4:	a1 1d       	adc	r26, r1
    20f6:	b1 1d       	adc	r27, r1
    20f8:	80 93 89 00 	sts	0x0089, r24
    20fc:	90 93 8a 00 	sts	0x008A, r25
    2100:	a0 93 8b 00 	sts	0x008B, r26
    2104:	b0 93 8c 00 	sts	0x008C, r27
		if(Timer_Overflow_counter == Global_u32Number_Of_Overflow+1)
    2108:	80 91 84 00 	lds	r24, 0x0084
    210c:	90 91 85 00 	lds	r25, 0x0085
    2110:	a0 91 86 00 	lds	r26, 0x0086
    2114:	b0 91 87 00 	lds	r27, 0x0087
    2118:	9c 01       	movw	r18, r24
    211a:	ad 01       	movw	r20, r26
    211c:	2f 5f       	subi	r18, 0xFF	; 255
    211e:	3f 4f       	sbci	r19, 0xFF	; 255
    2120:	4f 4f       	sbci	r20, 0xFF	; 255
    2122:	5f 4f       	sbci	r21, 0xFF	; 255
    2124:	80 91 89 00 	lds	r24, 0x0089
    2128:	90 91 8a 00 	lds	r25, 0x008A
    212c:	a0 91 8b 00 	lds	r26, 0x008B
    2130:	b0 91 8c 00 	lds	r27, 0x008C
    2134:	28 17       	cp	r18, r24
    2136:	39 07       	cpc	r19, r25
    2138:	4a 07       	cpc	r20, r26
    213a:	5b 07       	cpc	r21, r27
    213c:	61 f4       	brne	.+24     	; 0x2156 <__vector_11+0x136>
		{
			Timer_Overflow_counter = 0 ;
    213e:	10 92 89 00 	sts	0x0089, r1
    2142:	10 92 8a 00 	sts	0x008A, r1
    2146:	10 92 8b 00 	sts	0x008B, r1
    214a:	10 92 8c 00 	sts	0x008C, r1
			TIM0_GLOBAL_FUN = TIMER0_NO_OPERATION ;
    214e:	82 e0       	ldi	r24, 0x02	; 2
    2150:	80 93 60 00 	sts	0x0060, r24
    2154:	0f c0       	rjmp	.+30     	; 0x2174 <__vector_11+0x154>
		}
		else if(Global_u32Number_Of_Overflow == 0)
    2156:	80 91 84 00 	lds	r24, 0x0084
    215a:	90 91 85 00 	lds	r25, 0x0085
    215e:	a0 91 86 00 	lds	r26, 0x0086
    2162:	b0 91 87 00 	lds	r27, 0x0087
    2166:	00 97       	sbiw	r24, 0x00	; 0
    2168:	a1 05       	cpc	r26, r1
    216a:	b1 05       	cpc	r27, r1
    216c:	19 f4       	brne	.+6      	; 0x2174 <__vector_11+0x154>
		{
			TIM0_GLOBAL_FUN = TIMER0_NO_OPERATION ;
    216e:	82 e0       	ldi	r24, 0x02	; 2
    2170:	80 93 60 00 	sts	0x0060, r24
		}
	}
}
    2174:	cf 91       	pop	r28
    2176:	df 91       	pop	r29
    2178:	ff 91       	pop	r31
    217a:	ef 91       	pop	r30
    217c:	bf 91       	pop	r27
    217e:	af 91       	pop	r26
    2180:	9f 91       	pop	r25
    2182:	8f 91       	pop	r24
    2184:	7f 91       	pop	r23
    2186:	6f 91       	pop	r22
    2188:	5f 91       	pop	r21
    218a:	4f 91       	pop	r20
    218c:	3f 91       	pop	r19
    218e:	2f 91       	pop	r18
    2190:	0f 90       	pop	r0
    2192:	0f be       	out	0x3f, r0	; 63
    2194:	0f 90       	pop	r0
    2196:	1f 90       	pop	r1
    2198:	18 95       	reti

0000219a <EXTI_INT1_PUSH_BUTTON>:
void Task_2_GREEN(void);
void Task_3_BLUE(void);
void Task_4_YELLOW(void);
/****************************************************************************/
void EXTI_INT1_PUSH_BUTTON(void)
{
    219a:	df 93       	push	r29
    219c:	cf 93       	push	r28
    219e:	cd b7       	in	r28, 0x3d	; 61
    21a0:	de b7       	in	r29, 0x3e	; 62
	static u8 Local_u8PB_State = 0 ;
	Local_u8PB_State ^= 1 ;
    21a2:	90 91 91 00 	lds	r25, 0x0091
    21a6:	81 e0       	ldi	r24, 0x01	; 1
    21a8:	89 27       	eor	r24, r25
    21aa:	80 93 91 00 	sts	0x0091, r24
	if(Local_u8PB_State == 0)
    21ae:	80 91 91 00 	lds	r24, 0x0091
    21b2:	88 23       	and	r24, r24
    21b4:	21 f4       	brne	.+8      	; 0x21be <EXTI_INT1_PUSH_BUTTON+0x24>
	{
		/*Suspend Task-1 , ID = 0 */
		OS_voidSuspendTask(0);
    21b6:	80 e0       	ldi	r24, 0x00	; 0
    21b8:	0e 94 a6 0b 	call	0x174c	; 0x174c <OS_voidSuspendTask>
    21bc:	07 c0       	rjmp	.+14     	; 0x21cc <EXTI_INT1_PUSH_BUTTON+0x32>
	}
	else if(Local_u8PB_State == 1)
    21be:	80 91 91 00 	lds	r24, 0x0091
    21c2:	81 30       	cpi	r24, 0x01	; 1
    21c4:	19 f4       	brne	.+6      	; 0x21cc <EXTI_INT1_PUSH_BUTTON+0x32>
	{
		/*Resume Task-1 , ID = 0 */
		OS_voidResumeTask(0);
    21c6:	80 e0       	ldi	r24, 0x00	; 0
    21c8:	0e 94 d4 0b 	call	0x17a8	; 0x17a8 <OS_voidResumeTask>
	}
}
    21cc:	cf 91       	pop	r28
    21ce:	df 91       	pop	r29
    21d0:	08 95       	ret

000021d2 <main>:
/****************************************************************************/
int main()
{
    21d2:	df 93       	push	r29
    21d4:	cf 93       	push	r28
    21d6:	cd b7       	in	r28, 0x3d	; 61
    21d8:	de b7       	in	r29, 0x3e	; 62

	/* Initialize Timer 0 */
	M_TIMER0_voidInit();
    21da:	0e 94 fc 0c 	call	0x19f8	; 0x19f8 <M_TIMER0_voidInit>

	/* INT1 => PORT_D,PIN_3 INPUT PULLUP */
	DIO_voidSetPinDirection(PORT_D,PIN_3,INPUT);
    21de:	83 e0       	ldi	r24, 0x03	; 3
    21e0:	63 e0       	ldi	r22, 0x03	; 3
    21e2:	40 e0       	ldi	r20, 0x00	; 0
    21e4:	0e 94 49 00 	call	0x92	; 0x92 <DIO_voidSetPinDirection>
	DIO_voidSetPinValue(PORT_D,PIN_3,HIGH);
    21e8:	83 e0       	ldi	r24, 0x03	; 3
    21ea:	63 e0       	ldi	r22, 0x03	; 3
    21ec:	41 e0       	ldi	r20, 0x01	; 1
    21ee:	0e 94 04 03 	call	0x608	; 0x608 <DIO_voidSetPinValue>

	/* Red LED */
	DIO_voidSetPinDirection(PORT_B,PIN_7,OUTPUT);
    21f2:	81 e0       	ldi	r24, 0x01	; 1
    21f4:	67 e0       	ldi	r22, 0x07	; 7
    21f6:	41 e0       	ldi	r20, 0x01	; 1
    21f8:	0e 94 49 00 	call	0x92	; 0x92 <DIO_voidSetPinDirection>
	/* Green LED */
	DIO_voidSetPinDirection(PORT_A,PIN_4,OUTPUT);
    21fc:	80 e0       	ldi	r24, 0x00	; 0
    21fe:	64 e0       	ldi	r22, 0x04	; 4
    2200:	41 e0       	ldi	r20, 0x01	; 1
    2202:	0e 94 49 00 	call	0x92	; 0x92 <DIO_voidSetPinDirection>
	/* Blue LED */
	DIO_voidSetPinDirection(PORT_A,PIN_5,OUTPUT);
    2206:	80 e0       	ldi	r24, 0x00	; 0
    2208:	65 e0       	ldi	r22, 0x05	; 5
    220a:	41 e0       	ldi	r20, 0x01	; 1
    220c:	0e 94 49 00 	call	0x92	; 0x92 <DIO_voidSetPinDirection>
	/* Yellow LED */
	DIO_voidSetPinDirection(PORT_A,PIN_6,OUTPUT);
    2210:	80 e0       	ldi	r24, 0x00	; 0
    2212:	66 e0       	ldi	r22, 0x06	; 6
    2214:	41 e0       	ldi	r20, 0x01	; 1
    2216:	0e 94 49 00 	call	0x92	; 0x92 <DIO_voidSetPinDirection>


	/* CallBack for INT1  */
	MEXTI_voidSetCallBack(MEXTI_INT1,EXTI_INT1_PUSH_BUTTON);
    221a:	2d ec       	ldi	r18, 0xCD	; 205
    221c:	30 e1       	ldi	r19, 0x10	; 16
    221e:	81 e0       	ldi	r24, 0x01	; 1
    2220:	b9 01       	movw	r22, r18
    2222:	0e 94 6f 0a 	call	0x14de	; 0x14de <MEXTI_voidSetCallBack>


	MEXTI_voidSetSignalLatch(MEXTI_INT1,MEXTI_RISING_EDGE);
    2226:	81 e0       	ldi	r24, 0x01	; 1
    2228:	63 e0       	ldi	r22, 0x03	; 3
    222a:	0e 94 dd 08 	call	0x11ba	; 0x11ba <MEXTI_voidSetSignalLatch>

	/* Enable INT1  */
	MEXTI_voidEnableEXTI(MEXTI_INT1);
    222e:	81 e0       	ldi	r24, 0x01	; 1
    2230:	0e 94 f5 09 	call	0x13ea	; 0x13ea <MEXTI_voidEnableEXTI>

	/* Create Task */
	// TaskID = 0 , TaskFirstDelay = 0 , TaskPeriodicity = 1000 , TaskHandler = Task_1 //
	OS_voidCreateTask(0,1000,Task_1_RED,0);
    2234:	27 e4       	ldi	r18, 0x47	; 71
    2236:	31 e1       	ldi	r19, 0x11	; 17
    2238:	80 e0       	ldi	r24, 0x00	; 0
    223a:	90 e0       	ldi	r25, 0x00	; 0
    223c:	68 ee       	ldi	r22, 0xE8	; 232
    223e:	73 e0       	ldi	r23, 0x03	; 3
    2240:	a9 01       	movw	r20, r18
    2242:	20 e0       	ldi	r18, 0x00	; 0
    2244:	0e 94 3e 0b 	call	0x167c	; 0x167c <OS_voidCreateTask>

	// TaskID = 1 , TaskFirstDelay = 1 , TaskPeriodicity = 2000 , TaskHandler = Task_2 //
	OS_voidCreateTask(1000,2000,Task_2_GREEN,1);
    2248:	2b e5       	ldi	r18, 0x5B	; 91
    224a:	31 e1       	ldi	r19, 0x11	; 17
    224c:	88 ee       	ldi	r24, 0xE8	; 232
    224e:	93 e0       	ldi	r25, 0x03	; 3
    2250:	60 ed       	ldi	r22, 0xD0	; 208
    2252:	77 e0       	ldi	r23, 0x07	; 7
    2254:	a9 01       	movw	r20, r18
    2256:	21 e0       	ldi	r18, 0x01	; 1
    2258:	0e 94 3e 0b 	call	0x167c	; 0x167c <OS_voidCreateTask>

	// TaskID = 2 , TaskFirstDelay = 2 , TaskPeriodicity = 4000 , TaskHandler = Task_3 //
	OS_voidCreateTask(2000,3000,Task_3_BLUE,2);
    225c:	2f e6       	ldi	r18, 0x6F	; 111
    225e:	31 e1       	ldi	r19, 0x11	; 17
    2260:	80 ed       	ldi	r24, 0xD0	; 208
    2262:	97 e0       	ldi	r25, 0x07	; 7
    2264:	68 eb       	ldi	r22, 0xB8	; 184
    2266:	7b e0       	ldi	r23, 0x0B	; 11
    2268:	a9 01       	movw	r20, r18
    226a:	22 e0       	ldi	r18, 0x02	; 2
    226c:	0e 94 3e 0b 	call	0x167c	; 0x167c <OS_voidCreateTask>

	// TaskID = 3 , TaskFirstDelay = 2 , TaskPeriodicity = 4000 , TaskHandler = Task_3 //
	OS_voidCreateTask(3000,4000,Task_4_YELLOW,3);
    2270:	23 e8       	ldi	r18, 0x83	; 131
    2272:	31 e1       	ldi	r19, 0x11	; 17
    2274:	88 eb       	ldi	r24, 0xB8	; 184
    2276:	9b e0       	ldi	r25, 0x0B	; 11
    2278:	60 ea       	ldi	r22, 0xA0	; 160
    227a:	7f e0       	ldi	r23, 0x0F	; 15
    227c:	a9 01       	movw	r20, r18
    227e:	23 e0       	ldi	r18, 0x03	; 3
    2280:	0e 94 3e 0b 	call	0x167c	; 0x167c <OS_voidCreateTask>

	/* Start the Scheduler  */
	OS_voidStartScheduler();
    2284:	0e 94 2c 0b 	call	0x1658	; 0x1658 <OS_voidStartScheduler>


	/* ENABLE GLOBAL INTERRUPT */
	MGIE_voidEnable();
    2288:	0e 94 11 0b 	call	0x1622	; 0x1622 <MGIE_voidEnable>
    228c:	ff cf       	rjmp	.-2      	; 0x228c <main+0xba>

0000228e <Task_1_RED>:
	}
	return 0;
}
/****************************************************************************/
void Task_1_RED(void)
{
    228e:	df 93       	push	r29
    2290:	cf 93       	push	r28
    2292:	cd b7       	in	r28, 0x3d	; 61
    2294:	de b7       	in	r29, 0x3e	; 62
	static u8 Local_u8Toggle1 = 0 ;
	Local_u8Toggle1 ^= 1 ;
    2296:	90 91 92 00 	lds	r25, 0x0092
    229a:	81 e0       	ldi	r24, 0x01	; 1
    229c:	89 27       	eor	r24, r25
    229e:	80 93 92 00 	sts	0x0092, r24
	DIO_voidSetPinValue(PORT_B,PIN_7,Local_u8Toggle1);
    22a2:	90 91 92 00 	lds	r25, 0x0092
    22a6:	81 e0       	ldi	r24, 0x01	; 1
    22a8:	67 e0       	ldi	r22, 0x07	; 7
    22aa:	49 2f       	mov	r20, r25
    22ac:	0e 94 04 03 	call	0x608	; 0x608 <DIO_voidSetPinValue>
}
    22b0:	cf 91       	pop	r28
    22b2:	df 91       	pop	r29
    22b4:	08 95       	ret

000022b6 <Task_2_GREEN>:
/****************************************************************************/
void Task_2_GREEN(void)
{
    22b6:	df 93       	push	r29
    22b8:	cf 93       	push	r28
    22ba:	cd b7       	in	r28, 0x3d	; 61
    22bc:	de b7       	in	r29, 0x3e	; 62
	static u8 Local_u8Toggle2 = 0 ;
	Local_u8Toggle2 ^= 1 ;
    22be:	90 91 93 00 	lds	r25, 0x0093
    22c2:	81 e0       	ldi	r24, 0x01	; 1
    22c4:	89 27       	eor	r24, r25
    22c6:	80 93 93 00 	sts	0x0093, r24
	DIO_voidSetPinValue(PORT_A,PIN_4,Local_u8Toggle2);
    22ca:	90 91 93 00 	lds	r25, 0x0093
    22ce:	80 e0       	ldi	r24, 0x00	; 0
    22d0:	64 e0       	ldi	r22, 0x04	; 4
    22d2:	49 2f       	mov	r20, r25
    22d4:	0e 94 04 03 	call	0x608	; 0x608 <DIO_voidSetPinValue>
}
    22d8:	cf 91       	pop	r28
    22da:	df 91       	pop	r29
    22dc:	08 95       	ret

000022de <Task_3_BLUE>:
/****************************************************************************/
void Task_3_BLUE(void)
{
    22de:	df 93       	push	r29
    22e0:	cf 93       	push	r28
    22e2:	cd b7       	in	r28, 0x3d	; 61
    22e4:	de b7       	in	r29, 0x3e	; 62
	static u8 Local_u8Toggle3 = 0 ;
	Local_u8Toggle3 ^= 1 ;
    22e6:	90 91 94 00 	lds	r25, 0x0094
    22ea:	81 e0       	ldi	r24, 0x01	; 1
    22ec:	89 27       	eor	r24, r25
    22ee:	80 93 94 00 	sts	0x0094, r24
	DIO_voidSetPinValue(PORT_A,PIN_5,Local_u8Toggle3);
    22f2:	90 91 94 00 	lds	r25, 0x0094
    22f6:	80 e0       	ldi	r24, 0x00	; 0
    22f8:	65 e0       	ldi	r22, 0x05	; 5
    22fa:	49 2f       	mov	r20, r25
    22fc:	0e 94 04 03 	call	0x608	; 0x608 <DIO_voidSetPinValue>
}
    2300:	cf 91       	pop	r28
    2302:	df 91       	pop	r29
    2304:	08 95       	ret

00002306 <Task_4_YELLOW>:
/****************************************************************************/
void Task_4_YELLOW(void)
{
    2306:	df 93       	push	r29
    2308:	cf 93       	push	r28
    230a:	cd b7       	in	r28, 0x3d	; 61
    230c:	de b7       	in	r29, 0x3e	; 62
	static u8 Local_u8Toggle4 = 0 ;
	Local_u8Toggle4 ^= 1 ;
    230e:	90 91 95 00 	lds	r25, 0x0095
    2312:	81 e0       	ldi	r24, 0x01	; 1
    2314:	89 27       	eor	r24, r25
    2316:	80 93 95 00 	sts	0x0095, r24
	DIO_voidSetPinValue(PORT_A,PIN_6,Local_u8Toggle4);
    231a:	90 91 95 00 	lds	r25, 0x0095
    231e:	80 e0       	ldi	r24, 0x00	; 0
    2320:	66 e0       	ldi	r22, 0x06	; 6
    2322:	49 2f       	mov	r20, r25
    2324:	0e 94 04 03 	call	0x608	; 0x608 <DIO_voidSetPinValue>
}
    2328:	cf 91       	pop	r28
    232a:	df 91       	pop	r29
    232c:	08 95       	ret

0000232e <__mulsi3>:
    232e:	62 9f       	mul	r22, r18
    2330:	d0 01       	movw	r26, r0
    2332:	73 9f       	mul	r23, r19
    2334:	f0 01       	movw	r30, r0
    2336:	82 9f       	mul	r24, r18
    2338:	e0 0d       	add	r30, r0
    233a:	f1 1d       	adc	r31, r1
    233c:	64 9f       	mul	r22, r20
    233e:	e0 0d       	add	r30, r0
    2340:	f1 1d       	adc	r31, r1
    2342:	92 9f       	mul	r25, r18
    2344:	f0 0d       	add	r31, r0
    2346:	83 9f       	mul	r24, r19
    2348:	f0 0d       	add	r31, r0
    234a:	74 9f       	mul	r23, r20
    234c:	f0 0d       	add	r31, r0
    234e:	65 9f       	mul	r22, r21
    2350:	f0 0d       	add	r31, r0
    2352:	99 27       	eor	r25, r25
    2354:	72 9f       	mul	r23, r18
    2356:	b0 0d       	add	r27, r0
    2358:	e1 1d       	adc	r30, r1
    235a:	f9 1f       	adc	r31, r25
    235c:	63 9f       	mul	r22, r19
    235e:	b0 0d       	add	r27, r0
    2360:	e1 1d       	adc	r30, r1
    2362:	f9 1f       	adc	r31, r25
    2364:	bd 01       	movw	r22, r26
    2366:	cf 01       	movw	r24, r30
    2368:	11 24       	eor	r1, r1
    236a:	08 95       	ret

0000236c <__udivmodsi4>:
    236c:	a1 e2       	ldi	r26, 0x21	; 33
    236e:	1a 2e       	mov	r1, r26
    2370:	aa 1b       	sub	r26, r26
    2372:	bb 1b       	sub	r27, r27
    2374:	fd 01       	movw	r30, r26
    2376:	0d c0       	rjmp	.+26     	; 0x2392 <__udivmodsi4_ep>

00002378 <__udivmodsi4_loop>:
    2378:	aa 1f       	adc	r26, r26
    237a:	bb 1f       	adc	r27, r27
    237c:	ee 1f       	adc	r30, r30
    237e:	ff 1f       	adc	r31, r31
    2380:	a2 17       	cp	r26, r18
    2382:	b3 07       	cpc	r27, r19
    2384:	e4 07       	cpc	r30, r20
    2386:	f5 07       	cpc	r31, r21
    2388:	20 f0       	brcs	.+8      	; 0x2392 <__udivmodsi4_ep>
    238a:	a2 1b       	sub	r26, r18
    238c:	b3 0b       	sbc	r27, r19
    238e:	e4 0b       	sbc	r30, r20
    2390:	f5 0b       	sbc	r31, r21

00002392 <__udivmodsi4_ep>:
    2392:	66 1f       	adc	r22, r22
    2394:	77 1f       	adc	r23, r23
    2396:	88 1f       	adc	r24, r24
    2398:	99 1f       	adc	r25, r25
    239a:	1a 94       	dec	r1
    239c:	69 f7       	brne	.-38     	; 0x2378 <__udivmodsi4_loop>
    239e:	60 95       	com	r22
    23a0:	70 95       	com	r23
    23a2:	80 95       	com	r24
    23a4:	90 95       	com	r25
    23a6:	9b 01       	movw	r18, r22
    23a8:	ac 01       	movw	r20, r24
    23aa:	bd 01       	movw	r22, r26
    23ac:	cf 01       	movw	r24, r30
    23ae:	08 95       	ret

000023b0 <_exit>:
    23b0:	f8 94       	cli

000023b2 <__stop_program>:
    23b2:	ff cf       	rjmp	.-2      	; 0x23b2 <__stop_program>
